

Microchip MPLAB XC8 Assembler V2.45 build 20230818022343 
                                                                                               Fri Apr 12 03:37:34 2024

Microchip MPLAB XC8 C Compiler v2.45 (Free license) build 20230818022343 Og1 
     1                           	processor	18F4620
     2                           	fnconf	rparam,??,?,0
     3                           	pagewidth 120
     4                           	opt	flic
     5                           	psect	idataCOMRAM,global,class=CODE,delta=1,noexec
     6                           	psect	idataBANK0,global,class=CODE,delta=1,noexec
     7                           	psect	smallconst,global,reloc=2,class=SMALLCONST,delta=1,noexec
     8                           	psect	nvBANK0,global,class=BANK0,space=1,delta=1,lowdata,noexec
     9                           	psect	cinit,global,reloc=2,class=CODE,delta=1
    10                           	psect	bssCOMRAM,global,class=COMRAM,space=1,delta=1,lowdata,noexec
    11                           	psect	dataCOMRAM,global,class=COMRAM,space=1,delta=1,lowdata,noexec
    12                           	psect	bssBANK0,global,class=BANK0,space=1,delta=1,lowdata,noexec
    13                           	psect	dataBANK0,global,class=BANK0,space=1,delta=1,lowdata,noexec
    14                           	psect	cstackBANK1,global,class=BANK1,space=1,delta=1,lowdata,noexec
    15                           	psect	cstackCOMRAM,global,class=COMRAM,space=1,delta=1,lowdata,noexec
    16                           	psect	text0,global,reloc=2,class=CODE,delta=1
    17                           	psect	text1,global,reloc=2,class=CODE,delta=1
    18                           	psect	text2,global,reloc=2,class=CODE,delta=1
    19                           	psect	text3,global,reloc=2,class=CODE,delta=1
    20                           	psect	text4,global,reloc=2,class=CODE,delta=1
    21                           	psect	text5,global,reloc=2,class=CODE,delta=1
    22                           	psect	text6,global,reloc=2,class=CODE,delta=1
    23                           	psect	text7,global,reloc=2,class=CODE,delta=1
    24                           	psect	text8,global,reloc=2,class=CODE,delta=1
    25                           	psect	text9,global,reloc=2,class=CODE,delta=1
    26                           	psect	text10,global,reloc=2,class=CODE,delta=1
    27                           	psect	text11,global,reloc=2,class=CODE,delta=1
    28                           	psect	text12,global,reloc=2,class=CODE,delta=1
    29                           	psect	text13,global,reloc=2,class=CODE,delta=1
    30                           	psect	text14,global,reloc=2,class=CODE,delta=1
    31                           	psect	text15,global,reloc=2,class=CODE,delta=1
    32                           	psect	text16,global,reloc=2,class=CODE,delta=1
    33                           	psect	text17,global,reloc=2,class=CODE,delta=1
    34                           	psect	text18,global,reloc=2,class=CODE,delta=1
    35                           	psect	text19,global,reloc=2,class=CODE,delta=1,inline
    36                           	psect	text20,global,reloc=2,class=CODE,delta=1,inline
    37                           	psect	text21,global,reloc=2,class=CODE,delta=1,inline
    38                           	psect	text22,global,reloc=2,class=CODE,delta=1,inline
    39                           	psect	text23,global,reloc=2,class=CODE,delta=1,group=1
    40                           	psect	text24,global,reloc=2,class=CODE,delta=1,group=1
    41                           	psect	text25,global,reloc=2,class=CODE,delta=1,group=1
    42                           	psect	text26,global,reloc=2,class=CODE,delta=1,group=1
    43                           	psect	text27,global,reloc=2,class=CODE,delta=1
    44                           	psect	text28,global,reloc=2,class=CODE,delta=1
    45                           	psect	text29,global,reloc=2,class=CODE,delta=1
    46                           	psect	text30,global,reloc=2,class=CODE,delta=1
    47                           	psect	text31,global,reloc=2,class=CODE,delta=1,group=1
    48                           	psect	text32,global,reloc=2,class=CODE,delta=1
    49                           	psect	text33,global,reloc=2,class=CODE,delta=1
    50                           	psect	text34,global,reloc=2,class=CODE,delta=1
    51                           	psect	text35,global,reloc=2,class=CODE,delta=1
    52                           	psect	text36,global,reloc=2,class=CODE,delta=1
    53                           	psect	intcode,global,reloc=2,class=CODE,delta=1
    54                           	psect	intcode_body,global,reloc=2,class=CODE,delta=1
    55                           	psect	text38,global,reloc=2,class=CODE,delta=1
    56                           	psect	text39,global,reloc=2,class=CODE,delta=1
    57                           	psect	text40,global,reloc=2,class=CODE,delta=1
    58                           	psect	text41,global,reloc=2,class=CODE,delta=1
    59                           	psect	text42,global,reloc=2,class=CODE,delta=1
    60                           	psect	text43,global,reloc=2,class=CODE,delta=1
    61                           	psect	text44,global,reloc=2,class=CODE,delta=1
    62                           	psect	text45,global,reloc=2,class=CODE,delta=1
    63                           	psect	text46,global,reloc=2,class=CODE,delta=1
    64                           	psect	text47,global,reloc=2,class=CODE,delta=1
    65                           	psect	text48,global,reloc=2,class=CODE,delta=1
    66                           	psect	text49,global,reloc=2,class=CODE,delta=1
    67                           	psect	text50,global,reloc=2,class=CODE,delta=1
    68                           	psect	text51,global,reloc=2,class=CODE,delta=1
    69                           	psect	text52,global,reloc=2,class=CODE,delta=1
    70                           	psect	text53,global,reloc=2,class=CODE,delta=1
    71                           	psect	text54,global,reloc=2,class=CODE,delta=1
    72                           	psect	text55,global,reloc=2,class=CODE,delta=1
    73                           	psect	intsave_regs,global,class=BIGRAM,space=1,delta=1,noexec
    74                           	psect	rparam,global,class=COMRAM,space=1,delta=1,noexec
    75                           	psect	temp,global,ovrld,common,class=COMRAM,space=1,delta=1
    76                           	psect	config,global,abs,ovrld,class=CONFIG,space=4,delta=1,noexec
    77   000000                     
    78                           ; Generated 23/03/2023 GMT
    79                           ; 
    80                           ; Copyright © 2023, Microchip Technology Inc. and its subsidiaries ("Microchip")
    81                           ; All rights reserved.
    82                           ; 
    83                           ; This software is developed by Microchip Technology Inc. and its subsidiaries ("Microch
      +                          ip").
    84                           ; 
    85                           ; Redistribution and use in source and binary forms, with or without modification, are
    86                           ; permitted provided that the following conditions are met:
    87                           ; 
    88                           ;     1. Redistributions of source code must retain the above copyright notice, this lis
      +                          t of
    89                           ;        conditions and the following disclaimer.
    90                           ; 
    91                           ;     2. Redistributions in binary form must reproduce the above copyright notice, this 
      +                          list
    92                           ;        of conditions and the following disclaimer in the documentation and/or other
    93                           ;        materials provided with the distribution. Publication is not required when
    94                           ;        this file is used in an embedded application.
    95                           ; 
    96                           ;     3. Microchip's name may not be used to endorse or promote products derived from th
      +                          is
    97                           ;        software without specific prior written permission.
    98                           ; 
    99                           ; THIS SOFTWARE IS PROVIDED BY MICROCHIP "AS IS" AND ANY EXPRESS OR IMPLIED WARRANTIES,
   100                           ; INCLUDING, BUT NOT LIMITED TO, THE IMPLIED WARRANTIES OF MERCHANTABILITY AND FITNESS F
      +                          OR
   101                           ; PURPOSE ARE DISCLAIMED.  IN NO EVENT SHALL MICROCHIP BE LIABLE FOR ANY DIRECT, INDIREC
      +                          T,
   102                           ; INCIDENTAL, SPECIAL, EXEMPLARY, OR CONSEQUENTIAL DAMAGES (INCLUDING BUT NOT LIMITED TO
   103                           ; PROCUREMENT OF SUBSTITUTE GOODS OR SERVICES; LOSS OF USE, DATA OR PROFITS; OR BUSINESS
   104                           ; INTERRUPTION) HOWSOEVER CAUSED AND ON ANY THEORY OF LIABILITY, WHETHER IN CONTRACT, ST
      +                          RICT
   105                           ; LIABILITY, OR TORT (INCLUDING NEGLIGENCE OR OTHERWISE) ARISING IN ANY WAY OUT OF THE U
      +                          SE OF
   106                           ; THIS SOFTWARE, EVEN IF ADVISED OF THE POSSIBILITY OF SUCH DAMAGE.
   107                           ; 
   108                           ; 
   109                           ; Code-generator required, PIC18F4620 Definitions
   110                           ; 
   111                           ; SFR Addresses
   112   000000                     
   113                           	psect	idataCOMRAM
   114   003358                     __pidataCOMRAM:
   115                           	callstack 0
   116                           
   117                           ;initializer for _flag4
   118   003358  01                 	db	1
   119                           
   120                           ;initializer for _flag3
   121   003359  01                 	db	1
   122                           
   123                           ;initializer for _flag2
   124   00335A  01                 	db	1
   125                           
   126                           ;initializer for _flag1
   127   00335B  01                 	db	1
   128                           
   129                           ;initializer for _relay_2
   130   00335C  32                 	db	50
   131                           
   132                           ;initializer for _relay_1
   133   00335D  02                 	db	2
   134                           
   135                           ;initializer for _led_2
   136   00335E  42                 	db	66
   137                           
   138                           ;initializer for _led_1
   139   00335F  12                 	db	18
   140                           
   141                           ;initializer for _mssp_i2c
   142   003360  86A0               	dw	34464
   143   003362  0001               	dw	1
   144   003364  08                 	db	8
   145   003365  00                 	db	0
   146   003366  09                 	db	9
   147   003367  00                 	db	0
   148   003368  00                 	db	0
   149   003369  00                 	db	0
   150   00336A  00                 	db	0
   151   00336B  00                 	db	0
   152   00336C  00                 	db	0
   153   00336D  00                 	db	0
   154   00336E  00                 	db	0
   155                           
   156                           ;initializer for _servo1
   157   00336F  12                 	db	18
   158                           
   159                           ;initializer for _buzzer
   160   003370  32                 	db	50
   161                           
   162                           ;initializer for _led6
   163   003371  72                 	db	114
   164                           
   165                           ;initializer for _led4
   166   003372  52                 	db	82
   167                           
   168                           	psect	idataBANK0
   169   003168                     __pidataBANK0:
   170                           	callstack 0
   171                           
   172                           ;initializer for _ccp1_
   173   003168  00                 	db	0
   174   003169  00                 	db	0
   175   00316A  0E                 	db	14
   176   00316B  00                 	db	0
   177   00316C  02                 	db	2
   178   00316D  1388               	dw	5000
   179   00316F  0000               	dw	0
   180   003171  11                 	db	17
   181                           
   182                           ;initializer for _lat_regisrers
   183   003172  89                 	db	137
   184   003173  0F                 	db	15
   185   003174  8A                 	db	138
   186   003175  0F                 	db	15
   187   003176  8B                 	db	139
   188   003177  0F                 	db	15
   189   003178  8C                 	db	140
   190   003179  0F                 	db	15
   191   00317A  8D                 	db	141
   192   00317B  0F                 	db	15
   193                           
   194                           ;initializer for _port_regisrers
   195   00317C  80                 	db	128
   196   00317D  0F                 	db	15
   197   00317E  81                 	db	129
   198   00317F  0F                 	db	15
   199   003180  82                 	db	130
   200   003181  0F                 	db	15
   201   003182  83                 	db	131
   202   003183  0F                 	db	15
   203   003184  84                 	db	132
   204   003185  0F                 	db	15
   205                           
   206                           ;initializer for _tris_regisrers
   207   003186  92                 	db	146
   208   003187  0F                 	db	15
   209   003188  93                 	db	147
   210   003189  0F                 	db	15
   211   00318A  94                 	db	148
   212   00318B  0F                 	db	15
   213   00318C  95                 	db	149
   214   00318D  0F                 	db	15
   215   00318E  96                 	db	150
   216   00318F  0F                 	db	15
   217                           
   218                           ;initializer for _matrix_keypad_1
   219   003190  03                 	db	3
   220   003191  0B                 	db	11
   221   003192  13                 	db	19
   222   003193  1B                 	db	27
   223   003194  63                 	db	99
   224   003195  6B                 	db	107
   225   003196  73                 	db	115
   226   003197  7B                 	db	123
   227                           
   228                           ;initializer for _button_2
   229   003198  72                 	db	114
   230   003199  00                 	db	0
   231   00319A  00                 	db	0
   232                           
   233                           ;initializer for _button_1
   234   00319B  52                 	db	82
   235   00319C  00                 	db	0
   236   00319D  00                 	db	0
   237                           
   238                           ;initializer for _matrix_keypad
   239   00319E  03                 	db	3
   240   00319F  0B                 	db	11
   241   0031A0  13                 	db	19
   242   0031A1  1B                 	db	27
   243   0031A2  63                 	db	99
   244   0031A3  6B                 	db	107
   245   0031A4  73                 	db	115
   246   0031A5  7B                 	db	123
   247                           
   248                           ;initializer for _ultra_pins
   249   0031A6  0A                 	db	10
   250   0031A7  42                 	db	66
   251                           
   252                           	psect	smallconst
   253   001000                     __psmallconst:
   254                           	callstack 0
   255   001000  00                 	db	0
   256   001001                     _value_ret:
   257                           	callstack 0
   258   001001  37                 	db	55
   259   001002  38                 	db	56
   260   001003  39                 	db	57
   261   001004  2F                 	db	47
   262   001005  34                 	db	52
   263   001006  35                 	db	53
   264   001007  36                 	db	54
   265   001008  2A                 	db	42
   266   001009  31                 	db	49
   267   00100A  32                 	db	50
   268   00100B  33                 	db	51
   269   00100C  2D                 	db	45
   270   00100D  23                 	db	35
   271   00100E  30                 	db	48
   272   00100F  3D                 	db	61
   273   001010  2B                 	db	43
   274   001011                     __end_of_value_ret:
   275                           	callstack 0
   276   000000                     _SPBRGH	set	4016
   277   000000                     _SPBRG	set	4015
   278   000000                     _TXREG	set	4013
   279   000000                     _TXSTAbits	set	4012
   280   000000                     _RCREG	set	4014
   281   000000                     _RCSTAbits	set	4011
   282   000000                     _TMR3L	set	4018
   283   000000                     _TMR3H	set	4019
   284   000000                     _T3CONbits	set	4017
   285   000000                     _TMR2	set	4044
   286   000000                     _T2CONbits	set	4042
   287   000000                     _TMR0L	set	4054
   288   000000                     _TMR0H	set	4055
   289   000000                     _INTCON2bits	set	4081
   290   000000                     _SSPBUF	set	4041
   291   000000                     _SSPSTATbits	set	4039
   292   000000                     _SSPADD	set	4040
   293   000000                     _SSPCON2bits	set	4037
   294   000000                     _SSPCON1bits	set	4038
   295   000000                     _EECON2	set	4007
   296   000000                     _ADCON1bits	set	4033
   297   000000                     _ADRESL	set	4035
   298   000000                     _ADRESH	set	4036
   299   000000                     _TRISD	set	3989
   300   000000                     _TRISC	set	3988
   301   000000                     _PR2	set	4043
   302   000000                     _TRISB	set	3987
   303   000000                     _TRISE	set	3990
   304   001011                     STR_1:
   305   001011  25                 	db	37
   306   001012  69                 	db	105	;'i'
   307   001013  00                 	db	0
   308   001014  00                 	db	0	; dummy byte at the end
   309   000000                     
   310                           	psect	nvBANK0
   311   0000FF                     __pnvBANK0:
   312                           	callstack 0
   313   0000FF                     _ret:
   314                           	callstack 0
   315   0000FF                     	ds	1
   316   000000                     _TMR1L	set	4046
   317   000000                     _TMR1H	set	4047
   318   000000                     _PORTBbits	set	3969
   319   000000                     _TRISCbits	set	3988
   320   000000                     _TMR1	set	4046
   321   000000                     _PIE1bits	set	3997
   322   000000                     _ADCON2bits	set	4032
   323   000000                     _ADCON0bits	set	4034
   324   000000                     _T1CONbits	set	4045
   325   000000                     _LATA	set	3977
   326   000000                     _PORTE	set	3972
   327   000000                     _PORTD	set	3971
   328   000000                     _PORTC	set	3970
   329   000000                     _PORTB	set	3969
   330   000000                     _PORTA	set	3968
   331   000000                     _TRISA	set	3986
   332   000000                     _T0CONbits	set	4053
   333   000000                     _INTCON3bits	set	4080
   334   000000                     _INTCONbits	set	4082
   335   000000                     _PIE2bits	set	4000
   336   000000                     _CCP2CONbits	set	4026
   337   000000                     _CCP1CONbits	set	4029
   338   000000                     _PIR1bits	set	3998
   339   000000                     _CCPR1L	set	4030
   340   000000                     _CCPR2L	set	4027
   341   000000                     _IPR2bits	set	4002
   342   000000                     _EECON1bits	set	4006
   343   000000                     _EEDATA	set	4008
   344   000000                     _EEADR	set	4009
   345   000000                     _EEADRH	set	4010
   346   000000                     _PIR2bits	set	4001
   347   000000                     _LATE	set	3981
   348   000000                     _LATD	set	3980
   349   000000                     _LATC	set	3979
   350   000000                     _LATB	set	3978
   351   000000                     _BAUDCONbits	set	4024
   352                           
   353                           ; #config settings
   354                           
   355                           	psect	cinit
   356   002F60                     __pcinit:
   357                           	callstack 0
   358   002F60                     start_initialization:
   359                           	callstack 0
   360   002F60                     __initialization:
   361                           	callstack 0
   362                           
   363                           ; Initialize objects allocated to BANK0 (64 bytes)
   364                           ; load TBLPTR registers with __pidataBANK0
   365   002F60  0E68               	movlw	low __pidataBANK0
   366   002F62  6EF6               	movwf	tblptrl,c
   367   002F64  0E31               	movlw	high __pidataBANK0
   368   002F66  6EF7               	movwf	tblptrh,c
   369   002F68  0E00               	movlw	low (__pidataBANK0 shr (0+16))
   370   002F6A  6EF8               	movwf	tblptru,c
   371   002F6C  EE00  F080         	lfsr	0,__pdataBANK0
   372   002F70  EE10 F040          	lfsr	1,64
   373   002F74                     copy_data0:
   374   002F74  0009               	tblrd		*+
   375   002F76  CFF5 FFEE          	movff	tablat,postinc0
   376   002F7A  50E5               	movf	postdec1,w,c
   377   002F7C  50E1               	movf	fsr1l,w,c
   378   002F7E  E1FA               	bnz	copy_data0
   379                           
   380                           ; Initialize objects allocated to COMRAM (27 bytes)
   381                           ; load TBLPTR registers with __pidataCOMRAM
   382   002F80  0E58               	movlw	low __pidataCOMRAM
   383   002F82  6EF6               	movwf	tblptrl,c
   384   002F84  0E33               	movlw	high __pidataCOMRAM
   385   002F86  6EF7               	movwf	tblptrh,c
   386   002F88  0E00               	movlw	low (__pidataCOMRAM shr (0+16))
   387   002F8A  6EF8               	movwf	tblptru,c
   388   002F8C  EE00  F063         	lfsr	0,__pdataCOMRAM
   389   002F90  EE10 F01B          	lfsr	1,27
   390   002F94                     copy_data1:
   391   002F94  0009               	tblrd		*+
   392   002F96  CFF5 FFEE          	movff	tablat,postinc0
   393   002F9A  50E5               	movf	postdec1,w,c
   394   002F9C  50E1               	movf	fsr1l,w,c
   395   002F9E  E1FA               	bnz	copy_data1
   396                           
   397                           ; Clear objects allocated to BANK0 (63 bytes)
   398   002FA0  EE00  F0C0         	lfsr	0,__pbssBANK0
   399   002FA4  0E3F               	movlw	63
   400   002FA6                     clear_0:
   401   002FA6  6AEE               	clrf	postinc0,c
   402   002FA8  06E8               	decf	wreg,f,c
   403   002FAA  E1FD               	bnz	clear_0
   404                           
   405                           ; Clear objects allocated to COMRAM (28 bytes)
   406   002FAC  EE00  F047         	lfsr	0,__pbssCOMRAM
   407   002FB0  0E1C               	movlw	28
   408   002FB2                     clear_1:
   409   002FB2  6AEE               	clrf	postinc0,c
   410   002FB4  06E8               	decf	wreg,f,c
   411   002FB6  E1FD               	bnz	clear_1
   412   002FB8                     end_of_initialization:
   413                           	callstack 0
   414   002FB8                     __end_of__initialization:
   415                           	callstack 0
   416   002FB8  907E               	bcf	int$flags,0,c	;clear compiler interrupt flag (level 1)
   417   002FBA  927E               	bcf	int$flags,1,c	;clear compiler interrupt flag (level 2)
   418   002FBC  0100               	movlb	0
   419   002FBE  EF0B  F008         	goto	_main	;jump to C main() function
   420                           
   421                           	psect	bssCOMRAM
   422   000047                     __pbssCOMRAM:
   423                           	callstack 0
   424   000047                     _Timer3_preload:
   425                           	callstack 0
   426   000047                     	ds	2
   427   000049                     _Timer1_preload:
   428                           	callstack 0
   429   000049                     	ds	2
   430   00004B                     _Timer0_preload:
   431                           	callstack 0
   432   00004B                     	ds	2
   433   00004D                     _ADC_INTERRUPTHANDLER:
   434                           	callstack 0
   435   00004D                     	ds	2
   436   00004F                     _data_key_send:
   437                           	callstack 0
   438   00004F                     	ds	1
   439   000050                     _i2c_ack:
   440                           	callstack 0
   441   000050                     	ds	1
   442   000051                     _i2c_data:
   443                           	callstack 0
   444   000051                     	ds	1
   445   000052                     _ultra_data_int_:
   446                           	callstack 0
   447   000052                     	ds	1
   448   000053                     _ultra_data:
   449                           	callstack 0
   450   000053                     	ds	1
   451   000054                     	ds	1
   452   000055                     _Timer2_preload:
   453                           	callstack 0
   454   000055                     	ds	1
   455   000056                     relay_toggle@F3075:
   456                           	callstack 0
   457   000056                     	ds	1
   458   000057                     relay_turn_off@F3070:
   459                           	callstack 0
   460   000057                     	ds	1
   461   000058                     relay_turn_on@F3065:
   462                           	callstack 0
   463   000058                     	ds	1
   464   000059                     relay_intialize@F3060:
   465                           	callstack 0
   466   000059                     	ds	1
   467   00005A                     led_toggle@F3075:
   468                           	callstack 0
   469   00005A                     	ds	1
   470   00005B                     led_turn_off@F3070:
   471                           	callstack 0
   472   00005B                     	ds	1
   473   00005C                     led_turn_on@F3065:
   474                           	callstack 0
   475   00005C                     	ds	1
   476   00005D                     led_intialize@F3060:
   477                           	callstack 0
   478   00005D                     	ds	1
   479   00005E                     _data_key_1:
   480                           	callstack 0
   481   00005E                     	ds	1
   482   00005F                     _ret_data_3:
   483                           	callstack 0
   484   00005F                     	ds	1
   485   000060                     _ret_data_2:
   486                           	callstack 0
   487   000060                     	ds	1
   488   000061                     _ret_data_1:
   489                           	callstack 0
   490   000061                     	ds	1
   491   000062                     __ack:
   492                           	callstack 0
   493   000062                     	ds	1
   494                           
   495                           	psect	dataCOMRAM
   496   000063                     __pdataCOMRAM:
   497                           	callstack 0
   498   000063                     _flag4:
   499                           	callstack 0
   500   000063                     	ds	1
   501   000064                     _flag3:
   502                           	callstack 0
   503   000064                     	ds	1
   504   000065                     _flag2:
   505                           	callstack 0
   506   000065                     	ds	1
   507   000066                     _flag1:
   508                           	callstack 0
   509   000066                     	ds	1
   510   000067                     _relay_2:
   511                           	callstack 0
   512   000067                     	ds	1
   513   000068                     _relay_1:
   514                           	callstack 0
   515   000068                     	ds	1
   516   000069                     _led_2:
   517                           	callstack 0
   518   000069                     	ds	1
   519   00006A                     _led_1:
   520                           	callstack 0
   521   00006A                     	ds	1
   522   00006B                     _mssp_i2c:
   523                           	callstack 0
   524   00006B                     	ds	15
   525   00007A                     _servo1:
   526                           	callstack 0
   527   00007A                     	ds	1
   528   00007B                     _buzzer:
   529                           	callstack 0
   530   00007B                     	ds	1
   531   00007C                     _led6:
   532                           	callstack 0
   533   00007C                     	ds	1
   534   00007D                     _led4:
   535                           	callstack 0
   536   00007D                     	ds	1
   537                           
   538                           	psect	bssBANK0
   539   0000C0                     __pbssBANK0:
   540                           	callstack 0
   541   0000C0                     	ds	6
   542   0000C6                     _Timer2_1:
   543                           	callstack 0
   544   0000C6                     	ds	4
   545   0000CA                     _USART_OVERRUN_Interrupthandler:
   546                           	callstack 0
   547   0000CA                     	ds	2
   548   0000CC                     _USART_FRAMERROR_Interrupthandler:
   549                           	callstack 0
   550   0000CC                     	ds	2
   551   0000CE                     _USART_RX_Interrupthandler:
   552                           	callstack 0
   553   0000CE                     	ds	2
   554   0000D0                     _USART_TX_Interrupthandler:
   555                           	callstack 0
   556   0000D0                     	ds	2
   557   0000D2                     _TIMER3_Interrupthandler:
   558                           	callstack 0
   559   0000D2                     	ds	2
   560   0000D4                     _TIMER2_Interrupthandler:
   561                           	callstack 0
   562   0000D4                     	ds	2
   563   0000D6                     _TIMER1_Interrupthandler:
   564                           	callstack 0
   565   0000D6                     	ds	2
   566   0000D8                     _TIMER0_Interrupthandler:
   567                           	callstack 0
   568   0000D8                     	ds	2
   569   0000DA                     _RB7_interrupthandler_low:
   570                           	callstack 0
   571   0000DA                     	ds	2
   572   0000DC                     _RB7_interrupthandler_high:
   573                           	callstack 0
   574   0000DC                     	ds	2
   575   0000DE                     _RB6_interrupthandler_low:
   576                           	callstack 0
   577   0000DE                     	ds	2
   578   0000E0                     _RB6_interrupthandler_high:
   579                           	callstack 0
   580   0000E0                     	ds	2
   581   0000E2                     _RB5_interrupthandler_low:
   582                           	callstack 0
   583   0000E2                     	ds	2
   584   0000E4                     _RB5_interrupthandler_high:
   585                           	callstack 0
   586   0000E4                     	ds	2
   587   0000E6                     _RB4_interrupthandler_low:
   588                           	callstack 0
   589   0000E6                     	ds	2
   590   0000E8                     _RB4_interrupthandler_high:
   591                           	callstack 0
   592   0000E8                     	ds	2
   593   0000EA                     _Int2_interrupthandler:
   594                           	callstack 0
   595   0000EA                     	ds	2
   596   0000EC                     _Int1_interrupthandler:
   597                           	callstack 0
   598   0000EC                     	ds	2
   599   0000EE                     _Int0_interrupthandler:
   600                           	callstack 0
   601   0000EE                     	ds	2
   602   0000F0                     _I2C_Report_Receive_Overflow_InterruptHandle:
   603                           	callstack 0
   604   0000F0                     	ds	2
   605   0000F2                     _I2C_DefaultInterruptHandle:
   606                           	callstack 0
   607   0000F2                     	ds	2
   608   0000F4                     _I2C_Report_Write_Collision_InterruptHandler:
   609                           	callstack 0
   610   0000F4                     	ds	2
   611   0000F6                     _CCP2_Interrupthandler:
   612                           	callstack 0
   613   0000F6                     	ds	2
   614   0000F8                     _CCP1_Interrupthandler:
   615                           	callstack 0
   616   0000F8                     	ds	2
   617   0000FA                     _Timer1_1:
   618                           	callstack 0
   619   0000FA                     	ds	5
   620                           
   621                           	psect	dataBANK0
   622   000080                     __pdataBANK0:
   623                           	callstack 0
   624   000080                     _ccp1_:
   625                           	callstack 0
   626   000080                     	ds	10
   627   00008A                     _lat_regisrers:
   628                           	callstack 0
   629   00008A                     	ds	10
   630   000094                     _port_regisrers:
   631                           	callstack 0
   632   000094                     	ds	10
   633   00009E                     _tris_regisrers:
   634                           	callstack 0
   635   00009E                     	ds	10
   636   0000A8                     _matrix_keypad_1:
   637                           	callstack 0
   638   0000A8                     	ds	8
   639   0000B0                     _button_2:
   640                           	callstack 0
   641   0000B0                     	ds	3
   642   0000B3                     _button_1:
   643                           	callstack 0
   644   0000B3                     	ds	3
   645   0000B6                     _matrix_keypad:
   646                           	callstack 0
   647   0000B6                     	ds	8
   648   0000BE                     _ultra_pins:
   649                           	callstack 0
   650   0000BE                     	ds	2
   651                           
   652                           	psect	cstackBANK1
   653   000100                     __pcstackBANK1:
   654                           	callstack 0
   655   000100                     ??_main:
   656                           
   657                           ; 1 bytes @ 0x0
   658   000100                     	ds	1
   659                           
   660                           	psect	cstackCOMRAM
   661   000001                     __pcstackCOMRAM:
   662                           	callstack 0
   663   000001                     RB4_ISR@value:
   664                           	callstack 0
   665   000001                     RB5_ISR@value:
   666                           	callstack 0
   667   000001                     RB6_ISR@value:
   668                           	callstack 0
   669   000001                     RB7_ISR@value:
   670                           	callstack 0
   671                           
   672                           ; 1 bytes @ 0x0
   673   000001                     	ds	1
   674   000002                     ?___lwdiv:
   675                           	callstack 0
   676   000002                     ?___xxtofl:
   677                           	callstack 0
   678   000002                     GPIO_pIN_DIRECTION_INTIALIZE@config_pin:
   679                           	callstack 0
   680   000002                     GPIO_pIN_WRITE_LOGIC@config_pin:
   681                           	callstack 0
   682   000002                     GPIO_pIN_READ_LOGIC@config_pin:
   683                           	callstack 0
   684   000002                     MSSP_I2C_Master_Send_Start@i2c_obj:
   685                           	callstack 0
   686   000002                     MSSP_I2C_Master_Send_Repeated_Start@i2c_obj:
   687                           	callstack 0
   688   000002                     MSSP_I2C_Master_Send_Stop@i2c_obj:
   689                           	callstack 0
   690   000002                     MSSP_I2C_Master_Write_Blocking@i2c_obj:
   691                           	callstack 0
   692   000002                     MSSP_I2C_Master_Read_Blocking@i2c_obj:
   693                           	callstack 0
   694   000002                     I2C_Slave_Mode_Configurations@i2c_obj:
   695                           	callstack 0
   696   000002                     MSSP_I2C_Interrupt_Configurations@i2c_obj:
   697                           	callstack 0
   698   000002                     timer1_mode_cfg@Timer1:
   699                           	callstack 0
   700   000002                     timer1_reg_bit_cfg@Timer1:
   701                           	callstack 0
   702   000002                     timer1_osc_cfg@Timer1:
   703                           	callstack 0
   704   000002                     ___lwdiv@dividend:
   705                           	callstack 0
   706   000002                     ___xxtofl@val:
   707                           	callstack 0
   708                           
   709                           ; 4 bytes @ 0x1
   710   000002                     	ds	1
   711   000003                     ??_GPIO_pIN_DIRECTION_INTIALIZE:
   712   000003                     ??_I2C_Slave_Mode_Configurations:
   713   000003                     GPIO_pIN_WRITE_LOGIC@logic:
   714                           	callstack 0
   715   000003                     GPIO_pIN_READ_LOGIC@logic:
   716                           	callstack 0
   717   000003                     MSSP_I2C_Master_Write_Blocking@i2c_data:
   718                           	callstack 0
   719   000003                     MSSP_I2C_Master_Read_Blocking@ack:
   720                           	callstack 0
   721   000003                     Timer1_init@Timer1:
   722                           	callstack 0
   723                           
   724                           ; 1 bytes @ 0x2
   725   000003                     	ds	1
   726   000004                     ??_GPIO_pIN_READ_LOGIC:
   727   000004                     ??_GPIO_pIN_WRITE_LOGIC:
   728   000004                     ??_Timer1_init:
   729   000004                     MSSP_I2C_Master_Write_Blocking@_ack:
   730                           	callstack 0
   731   000004                     MSSP_I2C_Master_Read_Blocking@i2c_data:
   732                           	callstack 0
   733   000004                     ___lwdiv@divisor:
   734                           	callstack 0
   735                           
   736                           ; 2 bytes @ 0x3
   737   000004                     	ds	1
   738   000005                     MSSP_I2C_Master_read_data_in_register@i2c_obj:
   739                           	callstack 0
   740   000005                     MSSP_I2C_Master_call_slave@i2c_obj:
   741                           	callstack 0
   742                           
   743                           ; 1 bytes @ 0x4
   744   000005                     	ds	1
   745   000006                     ??___xxtofl:
   746   000006                     MSSP_I2C_Master_read_data_in_register@i2c_data_1:
   747                           	callstack 0
   748   000006                     MSSP_I2C_Master_call_slave@address:
   749                           	callstack 0
   750   000006                     ___lwdiv@quotient:
   751                           	callstack 0
   752                           
   753                           ; 2 bytes @ 0x5
   754   000006                     	ds	1
   755   000007                     MSSP_I2C_Master_read_data_in_register@i2c_data_2:
   756                           	callstack 0
   757   000007                     MSSP_I2C_Master_call_slave@data:
   758                           	callstack 0
   759                           
   760                           ; 1 bytes @ 0x6
   761   000007                     	ds	1
   762   000008                     GPIO_pIN_DIRECTION_INTIALIZE@ret:
   763                           	callstack 0
   764   000008                     GPIO_pIN_READ_LOGIC@ret:
   765                           	callstack 0
   766   000008                     MSSP_I2C_Master_read_data_in_register@ret_data:
   767                           	callstack 0
   768   000008                     MSSP_I2C_Master_call_slave@_ack:
   769                           	callstack 0
   770   000008                     ___lwdiv@counter:
   771                           	callstack 0
   772                           
   773                           ; 1 bytes @ 0x7
   774   000008                     	ds	1
   775   000009                     measure_distance_@ultra_pins:
   776                           	callstack 0
   777   000009                     GPIO_pIN_WRITE_LOGIC@ret:
   778                           	callstack 0
   779   000009                     MSSP_I2C_Master_read_data_in_register@_ack:
   780                           	callstack 0
   781                           
   782                           ; 1 bytes @ 0x8
   783   000009                     	ds	1
   784   00000A                     ??_MSSP_I2C_Master_read_data_in_register:
   785   00000A                     led_turn_on@led:
   786                           	callstack 0
   787   00000A                     led_turn_off@led:
   788                           	callstack 0
   789   00000A                     keypad_get_value@matrix_keypad:
   790                           	callstack 0
   791   00000A                     send_start@ultra_pins:
   792                           	callstack 0
   793   00000A                     GPIO_pIN_INTIALIZE@config_pin:
   794                           	callstack 0
   795   00000A                     ___xxtofl@sign:
   796                           	callstack 0
   797   00000A                     measure_distance_@pulse_width:
   798                           	callstack 0
   799                           
   800                           ; 2 bytes @ 0x9
   801   00000A                     	ds	1
   802   00000B                     ??_GPIO_pIN_INTIALIZE:
   803   00000B                     ??_led_turn_on:
   804   00000B                     ??_led_turn_off:
   805   00000B                     keypad_get_value@value:
   806                           	callstack 0
   807   00000B                     tc74_read_value@i2c_obj:
   808                           	callstack 0
   809   00000B                     ___xxtofl@exp:
   810                           	callstack 0
   811                           
   812                           ; 1 bytes @ 0xA
   813   00000B                     	ds	1
   814   00000C                     ??_keypad_get_value:
   815   00000C                     led_turn_on@pin_config:
   816                           	callstack 0
   817   00000C                     led_turn_off@pin_config:
   818                           	callstack 0
   819   00000C                     tc74_read_value@i2c_data_1:
   820                           	callstack 0
   821   00000C                     measure_distance_@variable:
   822                           	callstack 0
   823   00000C                     GPIO_pIN_INTIALIZE@ret:
   824                           	callstack 0
   825   00000C                     ___xxtofl@arg:
   826                           	callstack 0
   827                           
   828                           ; 4 bytes @ 0xB
   829   00000C                     	ds	1
   830   00000D                     led_intialize@led:
   831                           	callstack 0
   832   00000D                     keypad_intialize@matrix_keypad:
   833                           	callstack 0
   834   00000D                     keypad_get_value@colum_logic:
   835                           	callstack 0
   836   00000D                     tc74_read_value@i2c_data_2:
   837                           	callstack 0
   838   00000D                     ultrasonic_initialize@ultra_pins:
   839                           	callstack 0
   840   00000D                     distance_ultrasonic@ultra_pins:
   841                           	callstack 0
   842                           
   843                           ; 1 bytes @ 0xC
   844   00000D                     	ds	1
   845   00000E                     ??_led_intialize:
   846   00000E                     keypad_intialize@l_row_counter:
   847                           	callstack 0
   848   00000E                     keypad_get_value@l_counter:
   849                           	callstack 0
   850   00000E                     tc74_read_value@ret_data:
   851                           	callstack 0
   852   00000E                     distance_ultrasonic@l_variable:
   853                           	callstack 0
   854                           
   855                           ; 1 bytes @ 0xD
   856   00000E                     	ds	1
   857   00000F                     led_intialize@pin_config:
   858                           	callstack 0
   859   00000F                     keypad_intialize@l_colum_counter:
   860                           	callstack 0
   861   00000F                     keypad_get_value@l_row_counter:
   862                           	callstack 0
   863   00000F                     tc74_read_value@_ack:
   864                           	callstack 0
   865                           
   866                           ; 1 bytes @ 0xE
   867   00000F                     	ds	1
   868   000010                     ?___fldiv:
   869                           	callstack 0
   870   000010                     keypad_get_value@l_colum_counter:
   871                           	callstack 0
   872   000010                     ___fldiv@b:
   873                           	callstack 0
   874                           
   875                           ; 4 bytes @ 0xF
   876   000010                     	ds	4
   877   000014                     ___fldiv@a:
   878                           	callstack 0
   879                           
   880                           ; 4 bytes @ 0x13
   881   000014                     	ds	4
   882   000018                     ??___fldiv:
   883                           
   884                           ; 1 bytes @ 0x17
   885   000018                     	ds	4
   886   00001C                     ___fldiv@rem:
   887                           	callstack 0
   888                           
   889                           ; 4 bytes @ 0x1B
   890   00001C                     	ds	4
   891   000020                     ___fldiv@sign:
   892                           	callstack 0
   893                           
   894                           ; 1 bytes @ 0x1F
   895   000020                     	ds	1
   896   000021                     ___fldiv@new_exp:
   897                           	callstack 0
   898                           
   899                           ; 2 bytes @ 0x20
   900   000021                     	ds	2
   901   000023                     ___fldiv@grs:
   902                           	callstack 0
   903                           
   904                           ; 4 bytes @ 0x22
   905   000023                     	ds	4
   906   000027                     ___fldiv@bexp:
   907                           	callstack 0
   908                           
   909                           ; 1 bytes @ 0x26
   910   000027                     	ds	1
   911   000028                     ___fldiv@aexp:
   912                           	callstack 0
   913                           
   914                           ; 1 bytes @ 0x27
   915   000028                     	ds	1
   916   000029                     ?___fladd:
   917                           	callstack 0
   918   000029                     ___fladd@b:
   919                           	callstack 0
   920                           
   921                           ; 4 bytes @ 0x28
   922   000029                     	ds	4
   923   00002D                     ___fladd@a:
   924                           	callstack 0
   925                           
   926                           ; 4 bytes @ 0x2C
   927   00002D                     	ds	4
   928   000031                     ??___fladd:
   929                           
   930                           ; 1 bytes @ 0x30
   931   000031                     	ds	4
   932   000035                     ___fladd@signs:
   933                           	callstack 0
   934                           
   935                           ; 1 bytes @ 0x34
   936   000035                     	ds	1
   937   000036                     ___fladd@aexp:
   938                           	callstack 0
   939                           
   940                           ; 1 bytes @ 0x35
   941   000036                     	ds	1
   942   000037                     ___fladd@bexp:
   943                           	callstack 0
   944                           
   945                           ; 1 bytes @ 0x36
   946   000037                     	ds	1
   947   000038                     ___fladd@grs:
   948                           	callstack 0
   949                           
   950                           ; 1 bytes @ 0x37
   951   000038                     	ds	1
   952   000039                     ?___fltol:
   953                           	callstack 0
   954   000039                     ___fltol@f1:
   955                           	callstack 0
   956                           
   957                           ; 4 bytes @ 0x38
   958   000039                     	ds	4
   959   00003D                     ??___fltol:
   960                           
   961                           ; 1 bytes @ 0x3C
   962   00003D                     	ds	4
   963   000041                     ___fltol@sign1:
   964                           	callstack 0
   965                           
   966                           ; 1 bytes @ 0x40
   967   000041                     	ds	1
   968   000042                     ___fltol@exp1:
   969                           	callstack 0
   970                           
   971                           ; 1 bytes @ 0x41
   972   000042                     	ds	1
   973   000043                     I2C_Master_Mode_Clock_Configurations@i2c_obj:
   974                           	callstack 0
   975                           
   976                           ; 1 bytes @ 0x42
   977   000043                     	ds	1
   978   000044                     ??_I2C_Master_Mode_Clock_Configurations:
   979                           
   980                           ; 1 bytes @ 0x43
   981   000044                     	ds	1
   982   000045                     MSSP_I2C_Init@i2c_obj:
   983                           	callstack 0
   984                           
   985                           ; 1 bytes @ 0x44
   986   000045                     	ds	1
   987   000046                     MSSP_I2C_Init@ret:
   988                           	callstack 0
   989                           
   990                           ; 1 bytes @ 0x45
   991   000046                     	ds	1
   992   000047                     
   993                           ; 1 bytes @ 0x46
   994 ;;
   995 ;;Main: autosize = 0, tempsize = 1, incstack = 0, save=0
   996 ;;
   997 ;; *************** function _main *****************
   998 ;; Defined at:
   999 ;;		line 62 in file "main.c"
  1000 ;; Parameters:    Size  Location     Type
  1001 ;;		None
  1002 ;; Auto vars:     Size  Location     Type
  1003 ;;		None
  1004 ;; Return value:  Size  Location     Type
  1005 ;;                  2  1677[None  ] int 
  1006 ;; Registers used:
  1007 ;;		wreg, fsr1l, fsr1h, fsr2l, fsr2h, status,2, status,0, tblptrl, tblptrh, tblptru, prodl, prodh, cstack
  1008 ;; Tracked objects:
  1009 ;;		On entry : 0/0
  1010 ;;		On exit  : 0/0
  1011 ;;		Unchanged: 0/0
  1012 ;; Data sizes:     COMRAM   BANK0   BANK1   BANK2   BANK3   BANK4   BANK5   BANK6   BANK7   BANK8   BANK9  BANK10  BANK1
      +1  BANK12  BANK13  BANK14  BANK15
  1013 ;;      Params:         0       0       0       0       0       0       0       0       0       0       0       0       
      +0       0       0       0       0
  1014 ;;      Locals:         0       0       0       0       0       0       0       0       0       0       0       0       
      +0       0       0       0       0
  1015 ;;      Temps:          0       0       1       0       0       0       0       0       0       0       0       0       
      +0       0       0       0       0
  1016 ;;      Totals:         0       0       1       0       0       0       0       0       0       0       0       0       
      +0       0       0       0       0
  1017 ;;Total ram usage:        1 bytes
  1018 ;; Hardware stack levels required when called: 6
  1019 ;; This function calls:
  1020 ;;		_GPIO_pIN_WRITE_LOGIC
  1021 ;;		_MSSP_I2C_Master_call_slave
  1022 ;;		_distance_ultrasonic
  1023 ;;		_intitialized_functions
  1024 ;;		_keypad_get_value
  1025 ;;		_led_turn_off
  1026 ;;		_led_turn_on
  1027 ;;		_tc74_read_value
  1028 ;; This function is called by:
  1029 ;;		Startup code after reset
  1030 ;; This function uses a non-reentrant model
  1031 ;;
  1032                           
  1033                           	psect	text0
  1034   001016                     __ptext0:
  1035                           	callstack 0
  1036   001016                     _main:
  1037                           	callstack 25
  1038   001016                     
  1039                           ;main.c: 65:     intitialized_functions();
  1040   001016  EC6F  F018         	call	_intitialized_functions	;wreg free
  1041   00101A                     l8241:
  1042                           
  1043                           ;main.c: 68:     {;main.c: 70:         tc74_read_value(&mssp_i2c,(uint8)0X9E,(uint8)0x00
      +                          ,&ret_data_1,&_ack);
  1044   00101A  0E6B               	movlw	low _mssp_i2c
  1045   00101C  6E0B               	movwf	tc74_read_value@i2c_obj^0,c
  1046   00101E  0E9E               	movlw	158
  1047   001020  6E0C               	movwf	tc74_read_value@i2c_data_1^0,c
  1048   001022  0E00               	movlw	0
  1049   001024  6E0D               	movwf	tc74_read_value@i2c_data_2^0,c
  1050   001026  0E61               	movlw	low _ret_data_1
  1051   001028  6E0E               	movwf	tc74_read_value@ret_data^0,c
  1052   00102A  0E62               	movlw	low __ack
  1053   00102C  6E0F               	movwf	tc74_read_value@_ack^0,c
  1054   00102E  EC5D  F019         	call	_tc74_read_value	;wreg free
  1055   001032                     
  1056                           ;main.c: 71:         _delay((unsigned long)((5)*(4000000UL/4000.0)));
  1057   001032  0E07               	movlw	7
  1058   001034  0101               	movlb	1	; () banked
  1059   001036  6F00               	movwf	??_main& (0+255),b
  1060   001038  0E7D               	movlw	125
  1061   00103A                     u8397:
  1062   00103A  2EE8               	decfsz	wreg,f,c
  1063   00103C  D7FE               	bra	u8397
  1064   00103E  2F00               	decfsz	??_main& (0+255),f,b
  1065   001040  D7FC               	bra	u8397
  1066   001042                     
  1067                           ;main.c: 72:         tc74_read_value(&mssp_i2c,0x9C,(uint8)0x00,&ret_data_2,&_ack);
  1068   001042  0E6B               	movlw	low _mssp_i2c
  1069   001044  6E0B               	movwf	tc74_read_value@i2c_obj^0,c
  1070   001046  0E9C               	movlw	156
  1071   001048  6E0C               	movwf	tc74_read_value@i2c_data_1^0,c
  1072   00104A  0E00               	movlw	0
  1073   00104C  6E0D               	movwf	tc74_read_value@i2c_data_2^0,c
  1074   00104E  0E60               	movlw	low _ret_data_2
  1075   001050  6E0E               	movwf	tc74_read_value@ret_data^0,c
  1076   001052  0E62               	movlw	low __ack
  1077   001054  6E0F               	movwf	tc74_read_value@_ack^0,c
  1078   001056  EC5D  F019         	call	_tc74_read_value	;wreg free
  1079   00105A                     
  1080                           ;main.c: 73:         _delay((unsigned long)((5)*(4000000UL/4000.0)));
  1081   00105A  0E07               	movlw	7
  1082   00105C  0101               	movlb	1	; () banked
  1083   00105E  6F00               	movwf	??_main& (0+255),b
  1084   001060  0E7D               	movlw	125
  1085   001062                     u8407:
  1086   001062  2EE8               	decfsz	wreg,f,c
  1087   001064  D7FE               	bra	u8407
  1088   001066  2F00               	decfsz	??_main& (0+255),f,b
  1089   001068  D7FC               	bra	u8407
  1090   00106A                     
  1091                           ;main.c: 74:         tc74_read_value(&mssp_i2c,0x98,(uint8)0x00,&ret_data_3,&_ack);
  1092   00106A  0E6B               	movlw	low _mssp_i2c
  1093   00106C  6E0B               	movwf	tc74_read_value@i2c_obj^0,c
  1094   00106E  0E98               	movlw	152
  1095   001070  6E0C               	movwf	tc74_read_value@i2c_data_1^0,c
  1096   001072  0E00               	movlw	0
  1097   001074  6E0D               	movwf	tc74_read_value@i2c_data_2^0,c
  1098   001076  0E5F               	movlw	low _ret_data_3
  1099   001078  6E0E               	movwf	tc74_read_value@ret_data^0,c
  1100   00107A  0E62               	movlw	low __ack
  1101   00107C  6E0F               	movwf	tc74_read_value@_ack^0,c
  1102   00107E  EC5D  F019         	call	_tc74_read_value	;wreg free
  1103   001082                     
  1104                           ;main.c: 75:         _delay((unsigned long)((5)*(4000000UL/4000.0)));
  1105   001082  0E07               	movlw	7
  1106   001084  0101               	movlb	1	; () banked
  1107   001086  6F00               	movwf	??_main& (0+255),b
  1108   001088  0E7D               	movlw	125
  1109   00108A                     u8417:
  1110   00108A  2EE8               	decfsz	wreg,f,c
  1111   00108C  D7FE               	bra	u8417
  1112   00108E  2F00               	decfsz	??_main& (0+255),f,b
  1113   001090  D7FC               	bra	u8417
  1114   001092                     
  1115                           ;main.c: 78:         if(ret_data_1 > 25){
  1116   001092  0E19               	movlw	25
  1117   001094  6461               	cpfsgt	_ret_data_1^0,c
  1118   001096  EF4F  F008         	goto	u8041
  1119   00109A  EF51  F008         	goto	u8040
  1120   00109E                     u8041:
  1121   00109E  EF5D  F008         	goto	l8257
  1122   0010A2                     u8040:
  1123   0010A2                     
  1124                           ;main.c: 79:             MSSP_I2C_Master_call_slave(&mssp_i2c,0x60,'A',&_ack);
  1125   0010A2  0E6B               	movlw	low _mssp_i2c
  1126   0010A4  6E05               	movwf	MSSP_I2C_Master_call_slave@i2c_obj^0,c
  1127   0010A6  0E60               	movlw	96
  1128   0010A8  6E06               	movwf	MSSP_I2C_Master_call_slave@address^0,c
  1129   0010AA  0E41               	movlw	65
  1130   0010AC  6E07               	movwf	MSSP_I2C_Master_call_slave@data^0,c
  1131   0010AE  0E62               	movlw	low __ack
  1132   0010B0  6E08               	movwf	MSSP_I2C_Master_call_slave@_ack^0,c
  1133   0010B2  EC44  F019         	call	_MSSP_I2C_Master_call_slave	;wreg free
  1134                           
  1135                           ;main.c: 80:         }else{
  1136   0010B6  EF67  F008         	goto	l8259
  1137   0010BA                     l8257:
  1138                           
  1139                           ;main.c: 81:             MSSP_I2C_Master_call_slave(&mssp_i2c,0x60,'C',&_ack);
  1140   0010BA  0E6B               	movlw	low _mssp_i2c
  1141   0010BC  6E05               	movwf	MSSP_I2C_Master_call_slave@i2c_obj^0,c
  1142   0010BE  0E60               	movlw	96
  1143   0010C0  6E06               	movwf	MSSP_I2C_Master_call_slave@address^0,c
  1144   0010C2  0E43               	movlw	67
  1145   0010C4  6E07               	movwf	MSSP_I2C_Master_call_slave@data^0,c
  1146   0010C6  0E62               	movlw	low __ack
  1147   0010C8  6E08               	movwf	MSSP_I2C_Master_call_slave@_ack^0,c
  1148   0010CA  EC44  F019         	call	_MSSP_I2C_Master_call_slave	;wreg free
  1149   0010CE                     l8259:
  1150                           
  1151                           ;main.c: 85:         if ((ret_data_3 > 30)){
  1152   0010CE  0E1E               	movlw	30
  1153   0010D0  645F               	cpfsgt	_ret_data_3^0,c
  1154   0010D2  EF6D  F008         	goto	u8051
  1155   0010D6  EF6F  F008         	goto	u8050
  1156   0010DA                     u8051:
  1157   0010DA  EF7B  F008         	goto	l8263
  1158   0010DE                     u8050:
  1159   0010DE                     
  1160                           ;main.c: 86:             MSSP_I2C_Master_call_slave(&mssp_i2c,0x60,'K',&_ack);
  1161   0010DE  0E6B               	movlw	low _mssp_i2c
  1162   0010E0  6E05               	movwf	MSSP_I2C_Master_call_slave@i2c_obj^0,c
  1163   0010E2  0E60               	movlw	96
  1164   0010E4  6E06               	movwf	MSSP_I2C_Master_call_slave@address^0,c
  1165   0010E6  0E4B               	movlw	75
  1166   0010E8  6E07               	movwf	MSSP_I2C_Master_call_slave@data^0,c
  1167   0010EA  0E62               	movlw	low __ack
  1168   0010EC  6E08               	movwf	MSSP_I2C_Master_call_slave@_ack^0,c
  1169   0010EE  EC44  F019         	call	_MSSP_I2C_Master_call_slave	;wreg free
  1170                           
  1171                           ;main.c: 87:         }else if ((ret_data_3 < 30) && (ret_data_3 >= 27)){
  1172   0010F2  EFC7  F008         	goto	l8279
  1173   0010F6                     l8263:
  1174   0010F6  0E1E               	movlw	30
  1175   0010F8  605F               	cpfslt	_ret_data_3^0,c
  1176   0010FA  EF81  F008         	goto	u8061
  1177   0010FE  EF83  F008         	goto	u8060
  1178   001102                     u8061:
  1179   001102  EF97  F008         	goto	l8269
  1180   001106                     u8060:
  1181   001106  0E1A               	movlw	26
  1182   001108  645F               	cpfsgt	_ret_data_3^0,c
  1183   00110A  EF89  F008         	goto	u8071
  1184   00110E  EF8B  F008         	goto	u8070
  1185   001112                     u8071:
  1186   001112  EF97  F008         	goto	l8269
  1187   001116                     u8070:
  1188   001116                     
  1189                           ;main.c: 88:             MSSP_I2C_Master_call_slave(&mssp_i2c,0x60,'L',&_ack);
  1190   001116  0E6B               	movlw	low _mssp_i2c
  1191   001118  6E05               	movwf	MSSP_I2C_Master_call_slave@i2c_obj^0,c
  1192   00111A  0E60               	movlw	96
  1193   00111C  6E06               	movwf	MSSP_I2C_Master_call_slave@address^0,c
  1194   00111E  0E4C               	movlw	76
  1195   001120  6E07               	movwf	MSSP_I2C_Master_call_slave@data^0,c
  1196   001122  0E62               	movlw	low __ack
  1197   001124  6E08               	movwf	MSSP_I2C_Master_call_slave@_ack^0,c
  1198   001126  EC44  F019         	call	_MSSP_I2C_Master_call_slave	;wreg free
  1199                           
  1200                           ;main.c: 89:         }else if ((ret_data_3 < 27) && (ret_data_3 >= 25)){
  1201   00112A  EFC7  F008         	goto	l8279
  1202   00112E                     l8269:
  1203   00112E  0E1B               	movlw	27
  1204   001130  605F               	cpfslt	_ret_data_3^0,c
  1205   001132  EF9D  F008         	goto	u8081
  1206   001136  EF9F  F008         	goto	u8080
  1207   00113A                     u8081:
  1208   00113A  EFB3  F008         	goto	l8275
  1209   00113E                     u8080:
  1210   00113E  0E18               	movlw	24
  1211   001140  645F               	cpfsgt	_ret_data_3^0,c
  1212   001142  EFA5  F008         	goto	u8091
  1213   001146  EFA7  F008         	goto	u8090
  1214   00114A                     u8091:
  1215   00114A  EFB3  F008         	goto	l8275
  1216   00114E                     u8090:
  1217   00114E                     
  1218                           ;main.c: 90:             MSSP_I2C_Master_call_slave(&mssp_i2c,0x60,'H',&_ack);
  1219   00114E  0E6B               	movlw	low _mssp_i2c
  1220   001150  6E05               	movwf	MSSP_I2C_Master_call_slave@i2c_obj^0,c
  1221   001152  0E60               	movlw	96
  1222   001154  6E06               	movwf	MSSP_I2C_Master_call_slave@address^0,c
  1223   001156  0E48               	movlw	72
  1224   001158  6E07               	movwf	MSSP_I2C_Master_call_slave@data^0,c
  1225   00115A  0E62               	movlw	low __ack
  1226   00115C  6E08               	movwf	MSSP_I2C_Master_call_slave@_ack^0,c
  1227   00115E  EC44  F019         	call	_MSSP_I2C_Master_call_slave	;wreg free
  1228                           
  1229                           ;main.c: 91:         }else if ((ret_data_3 < 25)){
  1230   001162  EFC7  F008         	goto	l8279
  1231   001166                     l8275:
  1232   001166  0E19               	movlw	25
  1233   001168  605F               	cpfslt	_ret_data_3^0,c
  1234   00116A  EFB9  F008         	goto	u8101
  1235   00116E  EFBB  F008         	goto	u8100
  1236   001172                     u8101:
  1237   001172  EFC7  F008         	goto	l1684
  1238   001176                     u8100:
  1239   001176                     
  1240                           ;main.c: 92:             MSSP_I2C_Master_call_slave(&mssp_i2c,0x60,'G',&_ack);
  1241   001176  0E6B               	movlw	low _mssp_i2c
  1242   001178  6E05               	movwf	MSSP_I2C_Master_call_slave@i2c_obj^0,c
  1243   00117A  0E60               	movlw	96
  1244   00117C  6E06               	movwf	MSSP_I2C_Master_call_slave@address^0,c
  1245   00117E  0E47               	movlw	71
  1246   001180  6E07               	movwf	MSSP_I2C_Master_call_slave@data^0,c
  1247   001182  0E62               	movlw	low __ack
  1248   001184  6E08               	movwf	MSSP_I2C_Master_call_slave@_ack^0,c
  1249   001186  EC44  F019         	call	_MSSP_I2C_Master_call_slave	;wreg free
  1250   00118A  EFC7  F008         	goto	l8279
  1251   00118E                     l1684:
  1252   00118E                     l8279:
  1253                           
  1254                           ;main.c: 95:         ultra_data = distance_ultrasonic(&ultra_pins);
  1255   00118E  0EBE               	movlw	low _ultra_pins
  1256   001190  6E0D               	movwf	distance_ultrasonic@ultra_pins^0,c
  1257   001192  ECFB  F019         	call	_distance_ultrasonic	;wreg free
  1258   001196  6E53               	movwf	_ultra_data^0,c
  1259   001198                     
  1260                           ;main.c: 96:         ultra_data_int_ = (uint8)ultra_data;
  1261   001198  C053  F052         	movff	_ultra_data,_ultra_data_int_
  1262   00119C                     
  1263                           ;main.c: 98:         if(((ultra_data_int_) >= 80)){
  1264   00119C  0E4F               	movlw	79
  1265   00119E  6452               	cpfsgt	_ultra_data_int_^0,c
  1266   0011A0  EFD4  F008         	goto	u8111
  1267   0011A4  EFD6  F008         	goto	u8110
  1268   0011A8                     u8111:
  1269   0011A8  EFF0  F008         	goto	l8291
  1270   0011AC                     u8110:
  1271   0011AC                     l8285:
  1272                           
  1273                           ;main.c: 99:             led_turn_off(&led4);
  1274   0011AC  0E7D               	movlw	low _led4
  1275   0011AE  6E0A               	movwf	led_turn_off@led^0,c
  1276   0011B0  EC48  F017         	call	_led_turn_off	;wreg free
  1277                           
  1278                           ;main.c: 100:             led_turn_off(&led6);
  1279   0011B4  0E7C               	movlw	low _led6
  1280   0011B6  6E0A               	movwf	led_turn_off@led^0,c
  1281   0011B8  EC48  F017         	call	_led_turn_off	;wreg free
  1282                           
  1283                           ;main.c: 101:             GPIO_pIN_WRITE_LOGIC(&servo1,GPIO_LOW);
  1284   0011BC  0E7A               	movlw	low _servo1
  1285   0011BE  6E02               	movwf	GPIO_pIN_WRITE_LOGIC@config_pin^0,c
  1286   0011C0  0E00               	movlw	0
  1287   0011C2  6E03               	movwf	GPIO_pIN_WRITE_LOGIC@logic^0,c
  1288   0011C4  EC67  F013         	call	_GPIO_pIN_WRITE_LOGIC	;wreg free
  1289   0011C8                     l8287:
  1290                           
  1291                           ;main.c: 102:             _delay((unsigned long)((10)*(4000000UL/4000000.0)));
  1292   0011C8  0E03               	movlw	3
  1293   0011CA                     u8427:
  1294   0011CA  2EE8               	decfsz	wreg,f,c
  1295   0011CC  D7FE               	bra	u8427
  1296   0011CE  0000               	nop	
  1297   0011D0                     
  1298                           ;main.c: 103:             GPIO_pIN_WRITE_LOGIC(&servo1,GPIO_HIGH);
  1299   0011D0  0E7A               	movlw	low _servo1
  1300   0011D2  6E02               	movwf	GPIO_pIN_WRITE_LOGIC@config_pin^0,c
  1301   0011D4  0E01               	movlw	1
  1302   0011D6  6E03               	movwf	GPIO_pIN_WRITE_LOGIC@logic^0,c
  1303   0011D8  EC67  F013         	call	_GPIO_pIN_WRITE_LOGIC	;wreg free
  1304                           
  1305                           ;main.c: 104:         }else if(((ultra_data_int_) < 80) && ((ultra_data_int_) >= 75)){
  1306   0011DC  EF5E  F009         	goto	l8325
  1307   0011E0                     l8291:
  1308   0011E0  0E50               	movlw	80
  1309   0011E2  6052               	cpfslt	_ultra_data_int_^0,c
  1310   0011E4  EFF6  F008         	goto	u8121
  1311   0011E8  EFF8  F008         	goto	u8120
  1312   0011EC                     u8121:
  1313   0011EC  EF0A  F009         	goto	l8297
  1314   0011F0                     u8120:
  1315   0011F0  0E4A               	movlw	74
  1316   0011F2  6452               	cpfsgt	_ultra_data_int_^0,c
  1317   0011F4  EFFE  F008         	goto	u8131
  1318   0011F8  EF00  F009         	goto	u8130
  1319   0011FC                     u8131:
  1320   0011FC  EF0A  F009         	goto	l8297
  1321   001200                     u8130:
  1322   001200                     
  1323                           ;main.c: 105:             led_turn_on(&led4);
  1324   001200  0E7D               	movlw	low _led4
  1325   001202  6E0A               	movwf	led_turn_on@led^0,c
  1326   001204  EC13  F017         	call	_led_turn_on	;wreg free
  1327                           
  1328                           ;main.c: 106:             led_turn_off(&led6);
  1329   001208  0E7C               	movlw	low _led6
  1330   00120A  6E0A               	movwf	led_turn_off@led^0,c
  1331   00120C  EC48  F017         	call	_led_turn_off	;wreg free
  1332                           
  1333                           ;main.c: 108:         }else if(((ultra_data_int_) < 75) && ((ultra_data_int_) >= 70)){
  1334   001210  EF5E  F009         	goto	l8325
  1335   001214                     l8297:
  1336   001214  0E4B               	movlw	75
  1337   001216  6052               	cpfslt	_ultra_data_int_^0,c
  1338   001218  EF10  F009         	goto	u8141
  1339   00121C  EF12  F009         	goto	u8140
  1340   001220                     u8141:
  1341   001220  EF2A  F009         	goto	l8307
  1342   001224                     u8140:
  1343   001224  0E45               	movlw	69
  1344   001226  6452               	cpfsgt	_ultra_data_int_^0,c
  1345   001228  EF18  F009         	goto	u8151
  1346   00122C  EF1A  F009         	goto	u8150
  1347   001230                     u8151:
  1348   001230  EF2A  F009         	goto	l8307
  1349   001234                     u8150:
  1350   001234                     
  1351                           ;main.c: 109:             led_turn_on(&led4);
  1352   001234  0E7D               	movlw	low _led4
  1353   001236  6E0A               	movwf	led_turn_on@led^0,c
  1354   001238  EC13  F017         	call	_led_turn_on	;wreg free
  1355                           
  1356                           ;main.c: 110:             led_turn_on(&led6);
  1357   00123C  0E7C               	movlw	low _led6
  1358   00123E  6E0A               	movwf	led_turn_on@led^0,c
  1359   001240  EC13  F017         	call	_led_turn_on	;wreg free
  1360                           
  1361                           ;main.c: 111:             GPIO_pIN_WRITE_LOGIC(&servo1,GPIO_LOW);
  1362   001244  0E7A               	movlw	low _servo1
  1363   001246  6E02               	movwf	GPIO_pIN_WRITE_LOGIC@config_pin^0,c
  1364   001248  0E00               	movlw	0
  1365   00124A  6E03               	movwf	GPIO_pIN_WRITE_LOGIC@logic^0,c
  1366   00124C  EC67  F013         	call	_GPIO_pIN_WRITE_LOGIC	;wreg free
  1367   001250  EFE4  F008         	goto	l8287
  1368   001254                     l8307:
  1369   001254  0E46               	movlw	70
  1370   001256  6052               	cpfslt	_ultra_data_int_^0,c
  1371   001258  EF30  F009         	goto	u8161
  1372   00125C  EF32  F009         	goto	u8160
  1373   001260                     u8161:
  1374   001260  EF54  F009         	goto	l8317
  1375   001264                     u8160:
  1376   001264  0E42               	movlw	66
  1377   001266  6452               	cpfsgt	_ultra_data_int_^0,c
  1378   001268  EF38  F009         	goto	u8171
  1379   00126C  EF3A  F009         	goto	u8170
  1380   001270                     u8171:
  1381   001270  EF54  F009         	goto	l8317
  1382   001274                     u8170:
  1383   001274                     
  1384                           ;main.c: 115:             led_turn_on(&led4);
  1385   001274  0E7D               	movlw	low _led4
  1386   001276  6E0A               	movwf	led_turn_on@led^0,c
  1387   001278  EC13  F017         	call	_led_turn_on	;wreg free
  1388                           
  1389                           ;main.c: 116:             led_turn_on(&led6);
  1390   00127C  0E7C               	movlw	low _led6
  1391   00127E  6E0A               	movwf	led_turn_on@led^0,c
  1392   001280  EC13  F017         	call	_led_turn_on	;wreg free
  1393                           
  1394                           ;main.c: 117:             GPIO_pIN_WRITE_LOGIC(&servo1,GPIO_HIGH);
  1395   001284  0E7A               	movlw	low _servo1
  1396   001286  6E02               	movwf	GPIO_pIN_WRITE_LOGIC@config_pin^0,c
  1397   001288  0E01               	movlw	1
  1398   00128A  6E03               	movwf	GPIO_pIN_WRITE_LOGIC@logic^0,c
  1399   00128C  EC67  F013         	call	_GPIO_pIN_WRITE_LOGIC	;wreg free
  1400   001290                     
  1401                           ;main.c: 118:             _delay((unsigned long)((10)*(4000000UL/4000000.0)));
  1402   001290  0E03               	movlw	3
  1403   001292                     u8437:
  1404   001292  2EE8               	decfsz	wreg,f,c
  1405   001294  D7FE               	bra	u8437
  1406   001296  0000               	nop	
  1407   001298                     
  1408                           ;main.c: 119:             GPIO_pIN_WRITE_LOGIC(&servo1,GPIO_LOW);
  1409   001298  0E7A               	movlw	low _servo1
  1410   00129A  6E02               	movwf	GPIO_pIN_WRITE_LOGIC@config_pin^0,c
  1411   00129C  0E00               	movlw	0
  1412   00129E  6E03               	movwf	GPIO_pIN_WRITE_LOGIC@logic^0,c
  1413   0012A0  EC67  F013         	call	_GPIO_pIN_WRITE_LOGIC	;wreg free
  1414                           
  1415                           ;main.c: 120:         }else if(((ultra_data_int_) < 67)){
  1416   0012A4  EF5E  F009         	goto	l8325
  1417   0012A8                     l8317:
  1418   0012A8  0E43               	movlw	67
  1419   0012AA  6052               	cpfslt	_ultra_data_int_^0,c
  1420   0012AC  EF5A  F009         	goto	u8181
  1421   0012B0  EF5C  F009         	goto	u8180
  1422   0012B4                     u8181:
  1423   0012B4  EF5E  F009         	goto	l1691
  1424   0012B8                     u8180:
  1425   0012B8  EFD6  F008         	goto	l8285
  1426   0012BC                     l1691:
  1427   0012BC                     l8325:
  1428                           
  1429                           ;main.c: 129:         if(ret_data_2 > 40){
  1430   0012BC  0E28               	movlw	40
  1431   0012BE  6460               	cpfsgt	_ret_data_2^0,c
  1432   0012C0  EF64  F009         	goto	u8191
  1433   0012C4  EF66  F009         	goto	u8190
  1434   0012C8                     u8191:
  1435   0012C8  EFCB  F009         	goto	l8353
  1436   0012CC                     u8190:
  1437   0012CC  EFB5  F009         	goto	l8349
  1438   0012D0                     l8329:
  1439                           
  1440                           ;main.c: 131:                 tc74_read_value(&mssp_i2c,0x9C,(uint8)0x00,&ret_data_2,&_a
      +                          ck);
  1441   0012D0  0E6B               	movlw	low _mssp_i2c
  1442   0012D2  6E0B               	movwf	tc74_read_value@i2c_obj^0,c
  1443   0012D4  0E9C               	movlw	156
  1444   0012D6  6E0C               	movwf	tc74_read_value@i2c_data_1^0,c
  1445   0012D8  0E00               	movlw	0
  1446   0012DA  6E0D               	movwf	tc74_read_value@i2c_data_2^0,c
  1447   0012DC  0E60               	movlw	low _ret_data_2
  1448   0012DE  6E0E               	movwf	tc74_read_value@ret_data^0,c
  1449   0012E0  0E62               	movlw	low __ack
  1450   0012E2  6E0F               	movwf	tc74_read_value@_ack^0,c
  1451   0012E4  EC5D  F019         	call	_tc74_read_value	;wreg free
  1452                           
  1453                           ;main.c: 132:                 MSSP_I2C_Master_call_slave(&mssp_i2c,0x60,ret_data_2,&_ack
      +                          );
  1454   0012E8  0E6B               	movlw	low _mssp_i2c
  1455   0012EA  6E05               	movwf	MSSP_I2C_Master_call_slave@i2c_obj^0,c
  1456   0012EC  0E60               	movlw	96
  1457   0012EE  6E06               	movwf	MSSP_I2C_Master_call_slave@address^0,c
  1458   0012F0  C060  F007         	movff	_ret_data_2,MSSP_I2C_Master_call_slave@data
  1459   0012F4  0E62               	movlw	low __ack
  1460   0012F6  6E08               	movwf	MSSP_I2C_Master_call_slave@_ack^0,c
  1461   0012F8  EC44  F019         	call	_MSSP_I2C_Master_call_slave	;wreg free
  1462   0012FC                     
  1463                           ;main.c: 133:                  _delay((unsigned long)((50)*(4000000UL/4000.0)));
  1464   0012FC  0E41               	movlw	65
  1465   0012FE  0101               	movlb	1	; () banked
  1466   001300  6F00               	movwf	??_main& (0+255),b
  1467   001302  0EEE               	movlw	238
  1468   001304                     u8447:
  1469   001304  2EE8               	decfsz	wreg,f,c
  1470   001306  D7FE               	bra	u8447
  1471   001308  2F00               	decfsz	??_main& (0+255),f,b
  1472   00130A  D7FC               	bra	u8447
  1473   00130C  0000               	nop	
  1474   00130E                     
  1475                           ;main.c: 134:                  GPIO_pIN_WRITE_LOGIC(&buzzer,GPIO_HIGH);
  1476   00130E  0E7B               	movlw	low _buzzer
  1477   001310  6E02               	movwf	GPIO_pIN_WRITE_LOGIC@config_pin^0,c
  1478   001312  0E01               	movlw	1
  1479   001314  6E03               	movwf	GPIO_pIN_WRITE_LOGIC@logic^0,c
  1480   001316  EC67  F013         	call	_GPIO_pIN_WRITE_LOGIC	;wreg free
  1481   00131A                     
  1482                           ;main.c: 135:                  led_turn_off(&led4);
  1483   00131A  0E7D               	movlw	low _led4
  1484   00131C  6E0A               	movwf	led_turn_off@led^0,c
  1485   00131E  EC48  F017         	call	_led_turn_off	;wreg free
  1486   001322                     
  1487                           ;main.c: 136:                  led_turn_off(&led6);
  1488   001322  0E7C               	movlw	low _led6
  1489   001324  6E0A               	movwf	led_turn_off@led^0,c
  1490   001326  EC48  F017         	call	_led_turn_off	;wreg free
  1491   00132A                     
  1492                           ;main.c: 137:                  _delay((unsigned long)((100)*(4000000UL/4000.0)));
  1493   00132A  0E82               	movlw	130
  1494   00132C  0101               	movlb	1	; () banked
  1495   00132E  6F00               	movwf	??_main& (0+255),b
  1496   001330  0EDD               	movlw	221
  1497   001332                     u8457:
  1498   001332  2EE8               	decfsz	wreg,f,c
  1499   001334  D7FE               	bra	u8457
  1500   001336  2F00               	decfsz	??_main& (0+255),f,b
  1501   001338  D7FC               	bra	u8457
  1502   00133A  D000               	nop2	
  1503   00133C                     
  1504                           ;main.c: 138:                  led_turn_on(&led4);
  1505   00133C  0E7D               	movlw	low _led4
  1506   00133E  6E0A               	movwf	led_turn_on@led^0,c
  1507   001340  EC13  F017         	call	_led_turn_on	;wreg free
  1508   001344                     
  1509                           ;main.c: 139:                  led_turn_on(&led6);
  1510   001344  0E7C               	movlw	low _led6
  1511   001346  6E0A               	movwf	led_turn_on@led^0,c
  1512   001348  EC13  F017         	call	_led_turn_on	;wreg free
  1513   00134C                     
  1514                           ;main.c: 140:                  GPIO_pIN_WRITE_LOGIC(&buzzer,GPIO_LOW);
  1515   00134C  0E7B               	movlw	low _buzzer
  1516   00134E  6E02               	movwf	GPIO_pIN_WRITE_LOGIC@config_pin^0,c
  1517   001350  0E00               	movlw	0
  1518   001352  6E03               	movwf	GPIO_pIN_WRITE_LOGIC@logic^0,c
  1519   001354  EC67  F013         	call	_GPIO_pIN_WRITE_LOGIC	;wreg free
  1520   001358                     
  1521                           ;main.c: 141:                  _delay((unsigned long)((100)*(4000000UL/4000.0)));
  1522   001358  0E82               	movlw	130
  1523   00135A  0101               	movlb	1	; () banked
  1524   00135C  6F00               	movwf	??_main& (0+255),b
  1525   00135E  0EDD               	movlw	221
  1526   001360                     u8467:
  1527   001360  2EE8               	decfsz	wreg,f,c
  1528   001362  D7FE               	bra	u8467
  1529   001364  2F00               	decfsz	??_main& (0+255),f,b
  1530   001366  D7FC               	bra	u8467
  1531   001368  D000               	nop2	
  1532   00136A                     l8349:
  1533                           
  1534                           ;main.c: 130:             while(ret_data_2 > 40){
  1535   00136A  0E29               	movlw	41
  1536   00136C  6060               	cpfslt	_ret_data_2^0,c
  1537   00136E  EFBB  F009         	goto	u8201
  1538   001372  EFBD  F009         	goto	u8200
  1539   001376                     u8201:
  1540   001376  EF68  F009         	goto	l8329
  1541   00137A                     u8200:
  1542   00137A                     
  1543                           ;main.c: 143:                  led_turn_off(&led4);
  1544   00137A  0E7D               	movlw	low _led4
  1545   00137C  6E0A               	movwf	led_turn_off@led^0,c
  1546   00137E  EC48  F017         	call	_led_turn_off	;wreg free
  1547                           
  1548                           ;main.c: 144:                  led_turn_off(&led6);
  1549   001382  0E7C               	movlw	low _led6
  1550   001384  6E0A               	movwf	led_turn_off@led^0,c
  1551   001386  EC48  F017         	call	_led_turn_off	;wreg free
  1552                           
  1553                           ;main.c: 145:                  GPIO_pIN_WRITE_LOGIC(&buzzer,GPIO_LOW);
  1554   00138A  0E7B               	movlw	low _buzzer
  1555   00138C  6E02               	movwf	GPIO_pIN_WRITE_LOGIC@config_pin^0,c
  1556   00138E  0E00               	movlw	0
  1557   001390  6E03               	movwf	GPIO_pIN_WRITE_LOGIC@logic^0,c
  1558   001392  EC67  F013         	call	_GPIO_pIN_WRITE_LOGIC	;wreg free
  1559   001396                     l8353:
  1560                           
  1561                           ;main.c: 148:         keypad_get_value(&matrix_keypad,&data_key_1);
  1562   001396  0EB6               	movlw	low _matrix_keypad
  1563   001398  6E0A               	movwf	keypad_get_value@matrix_keypad^0,c
  1564   00139A  0E5E               	movlw	low _data_key_1
  1565   00139C  6E0B               	movwf	keypad_get_value@value^0,c
  1566   00139E  EC72  F014         	call	_keypad_get_value	;wreg free
  1567   0013A2                     
  1568                           ;main.c: 149:         if(data_key_1 == '1'){
  1569   0013A2  0E31               	movlw	49
  1570   0013A4  185E               	xorwf	_data_key_1^0,w,c
  1571   0013A6  A4D8               	btfss	status,2,c
  1572   0013A8  EFD8  F009         	goto	u8211
  1573   0013AC  EFDA  F009         	goto	u8210
  1574   0013B0                     u8211:
  1575   0013B0  EFE6  F009         	goto	l8359
  1576   0013B4                     u8210:
  1577   0013B4                     
  1578                           ;main.c: 150:             MSSP_I2C_Master_call_slave(&mssp_i2c,0x60,'Q',&_ack);
  1579   0013B4  0E6B               	movlw	low _mssp_i2c
  1580   0013B6  6E05               	movwf	MSSP_I2C_Master_call_slave@i2c_obj^0,c
  1581   0013B8  0E60               	movlw	96
  1582   0013BA  6E06               	movwf	MSSP_I2C_Master_call_slave@address^0,c
  1583   0013BC  0E51               	movlw	81
  1584   0013BE  6E07               	movwf	MSSP_I2C_Master_call_slave@data^0,c
  1585   0013C0  0E62               	movlw	low __ack
  1586   0013C2  6E08               	movwf	MSSP_I2C_Master_call_slave@_ack^0,c
  1587   0013C4  EC44  F019         	call	_MSSP_I2C_Master_call_slave	;wreg free
  1588                           
  1589                           ;main.c: 151:         }else if(data_key_1 == '2'){
  1590   0013C8  EF2C  F00B         	goto	l8423
  1591   0013CC                     l8359:
  1592   0013CC  0E32               	movlw	50
  1593   0013CE  185E               	xorwf	_data_key_1^0,w,c
  1594   0013D0  A4D8               	btfss	status,2,c
  1595   0013D2  EFED  F009         	goto	u8221
  1596   0013D6  EFEF  F009         	goto	u8220
  1597   0013DA                     u8221:
  1598   0013DA  EFFB  F009         	goto	l8363
  1599   0013DE                     u8220:
  1600   0013DE                     
  1601                           ;main.c: 152:             MSSP_I2C_Master_call_slave(&mssp_i2c,0x60,'W',&_ack);
  1602   0013DE  0E6B               	movlw	low _mssp_i2c
  1603   0013E0  6E05               	movwf	MSSP_I2C_Master_call_slave@i2c_obj^0,c
  1604   0013E2  0E60               	movlw	96
  1605   0013E4  6E06               	movwf	MSSP_I2C_Master_call_slave@address^0,c
  1606   0013E6  0E57               	movlw	87
  1607   0013E8  6E07               	movwf	MSSP_I2C_Master_call_slave@data^0,c
  1608   0013EA  0E62               	movlw	low __ack
  1609   0013EC  6E08               	movwf	MSSP_I2C_Master_call_slave@_ack^0,c
  1610   0013EE  EC44  F019         	call	_MSSP_I2C_Master_call_slave	;wreg free
  1611                           
  1612                           ;main.c: 153:         }else if(data_key_1 == '3'){
  1613   0013F2  EF2C  F00B         	goto	l8423
  1614   0013F6                     l8363:
  1615   0013F6  0E33               	movlw	51
  1616   0013F8  185E               	xorwf	_data_key_1^0,w,c
  1617   0013FA  A4D8               	btfss	status,2,c
  1618   0013FC  EF02  F00A         	goto	u8231
  1619   001400  EF04  F00A         	goto	u8230
  1620   001404                     u8231:
  1621   001404  EF10  F00A         	goto	l8367
  1622   001408                     u8230:
  1623   001408                     
  1624                           ;main.c: 154:             MSSP_I2C_Master_call_slave(&mssp_i2c,0x60,'E',&_ack);
  1625   001408  0E6B               	movlw	low _mssp_i2c
  1626   00140A  6E05               	movwf	MSSP_I2C_Master_call_slave@i2c_obj^0,c
  1627   00140C  0E60               	movlw	96
  1628   00140E  6E06               	movwf	MSSP_I2C_Master_call_slave@address^0,c
  1629   001410  0E45               	movlw	69
  1630   001412  6E07               	movwf	MSSP_I2C_Master_call_slave@data^0,c
  1631   001414  0E62               	movlw	low __ack
  1632   001416  6E08               	movwf	MSSP_I2C_Master_call_slave@_ack^0,c
  1633   001418  EC44  F019         	call	_MSSP_I2C_Master_call_slave	;wreg free
  1634                           
  1635                           ;main.c: 155:         }else if(data_key_1 == '4'){
  1636   00141C  EF2C  F00B         	goto	l8423
  1637   001420                     l8367:
  1638   001420  0E34               	movlw	52
  1639   001422  185E               	xorwf	_data_key_1^0,w,c
  1640   001424  A4D8               	btfss	status,2,c
  1641   001426  EF17  F00A         	goto	u8241
  1642   00142A  EF19  F00A         	goto	u8240
  1643   00142E                     u8241:
  1644   00142E  EF25  F00A         	goto	l8371
  1645   001432                     u8240:
  1646   001432                     
  1647                           ;main.c: 156:             MSSP_I2C_Master_call_slave(&mssp_i2c,0x60,'R',&_ack);
  1648   001432  0E6B               	movlw	low _mssp_i2c
  1649   001434  6E05               	movwf	MSSP_I2C_Master_call_slave@i2c_obj^0,c
  1650   001436  0E60               	movlw	96
  1651   001438  6E06               	movwf	MSSP_I2C_Master_call_slave@address^0,c
  1652   00143A  0E52               	movlw	82
  1653   00143C  6E07               	movwf	MSSP_I2C_Master_call_slave@data^0,c
  1654   00143E  0E62               	movlw	low __ack
  1655   001440  6E08               	movwf	MSSP_I2C_Master_call_slave@_ack^0,c
  1656   001442  EC44  F019         	call	_MSSP_I2C_Master_call_slave	;wreg free
  1657                           
  1658                           ;main.c: 157:         }else if(data_key_1 == '5'){
  1659   001446  EF2C  F00B         	goto	l8423
  1660   00144A                     l8371:
  1661   00144A  0E35               	movlw	53
  1662   00144C  185E               	xorwf	_data_key_1^0,w,c
  1663   00144E  A4D8               	btfss	status,2,c
  1664   001450  EF2C  F00A         	goto	u8251
  1665   001454  EF2E  F00A         	goto	u8250
  1666   001458                     u8251:
  1667   001458  EF3A  F00A         	goto	l8375
  1668   00145C                     u8250:
  1669   00145C                     
  1670                           ;main.c: 158:             MSSP_I2C_Master_call_slave(&mssp_i2c,0x60,'T',&_ack);
  1671   00145C  0E6B               	movlw	low _mssp_i2c
  1672   00145E  6E05               	movwf	MSSP_I2C_Master_call_slave@i2c_obj^0,c
  1673   001460  0E60               	movlw	96
  1674   001462  6E06               	movwf	MSSP_I2C_Master_call_slave@address^0,c
  1675   001464  0E54               	movlw	84
  1676   001466  6E07               	movwf	MSSP_I2C_Master_call_slave@data^0,c
  1677   001468  0E62               	movlw	low __ack
  1678   00146A  6E08               	movwf	MSSP_I2C_Master_call_slave@_ack^0,c
  1679   00146C  EC44  F019         	call	_MSSP_I2C_Master_call_slave	;wreg free
  1680                           
  1681                           ;main.c: 159:         }else if(data_key_1 == '6'){
  1682   001470  EF2C  F00B         	goto	l8423
  1683   001474                     l8375:
  1684   001474  0E36               	movlw	54
  1685   001476  185E               	xorwf	_data_key_1^0,w,c
  1686   001478  A4D8               	btfss	status,2,c
  1687   00147A  EF41  F00A         	goto	u8261
  1688   00147E  EF43  F00A         	goto	u8260
  1689   001482                     u8261:
  1690   001482  EF4F  F00A         	goto	l8379
  1691   001486                     u8260:
  1692   001486                     
  1693                           ;main.c: 160:             MSSP_I2C_Master_call_slave(&mssp_i2c,0x60,'Y',&_ack);
  1694   001486  0E6B               	movlw	low _mssp_i2c
  1695   001488  6E05               	movwf	MSSP_I2C_Master_call_slave@i2c_obj^0,c
  1696   00148A  0E60               	movlw	96
  1697   00148C  6E06               	movwf	MSSP_I2C_Master_call_slave@address^0,c
  1698   00148E  0E59               	movlw	89
  1699   001490  6E07               	movwf	MSSP_I2C_Master_call_slave@data^0,c
  1700   001492  0E62               	movlw	low __ack
  1701   001494  6E08               	movwf	MSSP_I2C_Master_call_slave@_ack^0,c
  1702   001496  EC44  F019         	call	_MSSP_I2C_Master_call_slave	;wreg free
  1703                           
  1704                           ;main.c: 161:         }else if(data_key_1 == '7'){
  1705   00149A  EF2C  F00B         	goto	l8423
  1706   00149E                     l8379:
  1707   00149E  0E37               	movlw	55
  1708   0014A0  185E               	xorwf	_data_key_1^0,w,c
  1709   0014A2  A4D8               	btfss	status,2,c
  1710   0014A4  EF56  F00A         	goto	u8271
  1711   0014A8  EF58  F00A         	goto	u8270
  1712   0014AC                     u8271:
  1713   0014AC  EF64  F00A         	goto	l8383
  1714   0014B0                     u8270:
  1715   0014B0                     
  1716                           ;main.c: 162:             MSSP_I2C_Master_call_slave(&mssp_i2c,0x60,'U',&_ack);
  1717   0014B0  0E6B               	movlw	low _mssp_i2c
  1718   0014B2  6E05               	movwf	MSSP_I2C_Master_call_slave@i2c_obj^0,c
  1719   0014B4  0E60               	movlw	96
  1720   0014B6  6E06               	movwf	MSSP_I2C_Master_call_slave@address^0,c
  1721   0014B8  0E55               	movlw	85
  1722   0014BA  6E07               	movwf	MSSP_I2C_Master_call_slave@data^0,c
  1723   0014BC  0E62               	movlw	low __ack
  1724   0014BE  6E08               	movwf	MSSP_I2C_Master_call_slave@_ack^0,c
  1725   0014C0  EC44  F019         	call	_MSSP_I2C_Master_call_slave	;wreg free
  1726                           
  1727                           ;main.c: 163:         }else if(data_key_1 == '8'){
  1728   0014C4  EF2C  F00B         	goto	l8423
  1729   0014C8                     l8383:
  1730   0014C8  0E38               	movlw	56
  1731   0014CA  185E               	xorwf	_data_key_1^0,w,c
  1732   0014CC  A4D8               	btfss	status,2,c
  1733   0014CE  EF6B  F00A         	goto	u8281
  1734   0014D2  EF6D  F00A         	goto	u8280
  1735   0014D6                     u8281:
  1736   0014D6  EF79  F00A         	goto	l8387
  1737   0014DA                     u8280:
  1738   0014DA                     
  1739                           ;main.c: 164:             MSSP_I2C_Master_call_slave(&mssp_i2c,0x60,'I',&_ack);
  1740   0014DA  0E6B               	movlw	low _mssp_i2c
  1741   0014DC  6E05               	movwf	MSSP_I2C_Master_call_slave@i2c_obj^0,c
  1742   0014DE  0E60               	movlw	96
  1743   0014E0  6E06               	movwf	MSSP_I2C_Master_call_slave@address^0,c
  1744   0014E2  0E49               	movlw	73
  1745   0014E4  6E07               	movwf	MSSP_I2C_Master_call_slave@data^0,c
  1746   0014E6  0E62               	movlw	low __ack
  1747   0014E8  6E08               	movwf	MSSP_I2C_Master_call_slave@_ack^0,c
  1748   0014EA  EC44  F019         	call	_MSSP_I2C_Master_call_slave	;wreg free
  1749                           
  1750                           ;main.c: 165:         }else if(data_key_1 == '9'){
  1751   0014EE  EF2C  F00B         	goto	l8423
  1752   0014F2                     l8387:
  1753   0014F2  0E39               	movlw	57
  1754   0014F4  185E               	xorwf	_data_key_1^0,w,c
  1755   0014F6  A4D8               	btfss	status,2,c
  1756   0014F8  EF80  F00A         	goto	u8291
  1757   0014FC  EF82  F00A         	goto	u8290
  1758   001500                     u8291:
  1759   001500  EF8E  F00A         	goto	l8391
  1760   001504                     u8290:
  1761   001504                     
  1762                           ;main.c: 166:             MSSP_I2C_Master_call_slave(&mssp_i2c,0x60,'O',&_ack);
  1763   001504  0E6B               	movlw	low _mssp_i2c
  1764   001506  6E05               	movwf	MSSP_I2C_Master_call_slave@i2c_obj^0,c
  1765   001508  0E60               	movlw	96
  1766   00150A  6E06               	movwf	MSSP_I2C_Master_call_slave@address^0,c
  1767   00150C  0E4F               	movlw	79
  1768   00150E  6E07               	movwf	MSSP_I2C_Master_call_slave@data^0,c
  1769   001510  0E62               	movlw	low __ack
  1770   001512  6E08               	movwf	MSSP_I2C_Master_call_slave@_ack^0,c
  1771   001514  EC44  F019         	call	_MSSP_I2C_Master_call_slave	;wreg free
  1772                           
  1773                           ;main.c: 167:         }else if(data_key_1 == '*'){
  1774   001518  EF2C  F00B         	goto	l8423
  1775   00151C                     l8391:
  1776   00151C  0E2A               	movlw	42
  1777   00151E  185E               	xorwf	_data_key_1^0,w,c
  1778   001520  A4D8               	btfss	status,2,c
  1779   001522  EF95  F00A         	goto	u8301
  1780   001526  EF97  F00A         	goto	u8300
  1781   00152A                     u8301:
  1782   00152A  EFA3  F00A         	goto	l8395
  1783   00152E                     u8300:
  1784   00152E                     l8393:
  1785                           
  1786                           ;main.c: 168:             MSSP_I2C_Master_call_slave(&mssp_i2c,0x60,'S',&_ack);
  1787   00152E  0E6B               	movlw	low _mssp_i2c
  1788   001530  6E05               	movwf	MSSP_I2C_Master_call_slave@i2c_obj^0,c
  1789   001532  0E60               	movlw	96
  1790   001534  6E06               	movwf	MSSP_I2C_Master_call_slave@address^0,c
  1791   001536  0E53               	movlw	83
  1792   001538  6E07               	movwf	MSSP_I2C_Master_call_slave@data^0,c
  1793   00153A  0E62               	movlw	low __ack
  1794   00153C  6E08               	movwf	MSSP_I2C_Master_call_slave@_ack^0,c
  1795   00153E  EC44  F019         	call	_MSSP_I2C_Master_call_slave	;wreg free
  1796                           
  1797                           ;main.c: 169:         }else if(data_key_1 == '*'){
  1798   001542  EF2C  F00B         	goto	l8423
  1799   001546                     l8395:
  1800   001546  0E2A               	movlw	42
  1801   001548  185E               	xorwf	_data_key_1^0,w,c
  1802   00154A  A4D8               	btfss	status,2,c
  1803   00154C  EFAA  F00A         	goto	u8311
  1804   001550  EFAC  F00A         	goto	u8310
  1805   001554                     u8311:
  1806   001554  EFAE  F00A         	goto	l8399
  1807   001558                     u8310:
  1808   001558  EF97  F00A         	goto	l8393
  1809   00155C                     l8399:
  1810   00155C  0E2F               	movlw	47
  1811   00155E  185E               	xorwf	_data_key_1^0,w,c
  1812   001560  A4D8               	btfss	status,2,c
  1813   001562  EFB5  F00A         	goto	u8321
  1814   001566  EFB7  F00A         	goto	u8320
  1815   00156A                     u8321:
  1816   00156A  EFC3  F00A         	goto	l8403
  1817   00156E                     u8320:
  1818   00156E                     
  1819                           ;main.c: 172:             MSSP_I2C_Master_call_slave(&mssp_i2c,0x60,'F',&_ack);
  1820   00156E  0E6B               	movlw	low _mssp_i2c
  1821   001570  6E05               	movwf	MSSP_I2C_Master_call_slave@i2c_obj^0,c
  1822   001572  0E60               	movlw	96
  1823   001574  6E06               	movwf	MSSP_I2C_Master_call_slave@address^0,c
  1824   001576  0E46               	movlw	70
  1825   001578  6E07               	movwf	MSSP_I2C_Master_call_slave@data^0,c
  1826   00157A  0E62               	movlw	low __ack
  1827   00157C  6E08               	movwf	MSSP_I2C_Master_call_slave@_ack^0,c
  1828   00157E  EC44  F019         	call	_MSSP_I2C_Master_call_slave	;wreg free
  1829                           
  1830                           ;main.c: 173:         }else if(data_key_1 == '-'){
  1831   001582  EF2C  F00B         	goto	l8423
  1832   001586                     l8403:
  1833   001586  0E2D               	movlw	45
  1834   001588  185E               	xorwf	_data_key_1^0,w,c
  1835   00158A  A4D8               	btfss	status,2,c
  1836   00158C  EFCA  F00A         	goto	u8331
  1837   001590  EFCC  F00A         	goto	u8330
  1838   001594                     u8331:
  1839   001594  EFD8  F00A         	goto	l8407
  1840   001598                     u8330:
  1841   001598                     
  1842                           ;main.c: 174:             MSSP_I2C_Master_call_slave(&mssp_i2c,0x60,'J',&_ack);
  1843   001598  0E6B               	movlw	low _mssp_i2c
  1844   00159A  6E05               	movwf	MSSP_I2C_Master_call_slave@i2c_obj^0,c
  1845   00159C  0E60               	movlw	96
  1846   00159E  6E06               	movwf	MSSP_I2C_Master_call_slave@address^0,c
  1847   0015A0  0E4A               	movlw	74
  1848   0015A2  6E07               	movwf	MSSP_I2C_Master_call_slave@data^0,c
  1849   0015A4  0E62               	movlw	low __ack
  1850   0015A6  6E08               	movwf	MSSP_I2C_Master_call_slave@_ack^0,c
  1851   0015A8  EC44  F019         	call	_MSSP_I2C_Master_call_slave	;wreg free
  1852                           
  1853                           ;main.c: 175:         }else if(data_key_1 == '+'){
  1854   0015AC  EF2C  F00B         	goto	l8423
  1855   0015B0                     l8407:
  1856   0015B0  0E2B               	movlw	43
  1857   0015B2  185E               	xorwf	_data_key_1^0,w,c
  1858   0015B4  A4D8               	btfss	status,2,c
  1859   0015B6  EFDF  F00A         	goto	u8341
  1860   0015BA  EFE1  F00A         	goto	u8340
  1861   0015BE                     u8341:
  1862   0015BE  EFED  F00A         	goto	l8411
  1863   0015C2                     u8340:
  1864   0015C2                     
  1865                           ;main.c: 176:             MSSP_I2C_Master_call_slave(&mssp_i2c,0x60,'Z',&_ack);
  1866   0015C2  0E6B               	movlw	low _mssp_i2c
  1867   0015C4  6E05               	movwf	MSSP_I2C_Master_call_slave@i2c_obj^0,c
  1868   0015C6  0E60               	movlw	96
  1869   0015C8  6E06               	movwf	MSSP_I2C_Master_call_slave@address^0,c
  1870   0015CA  0E5A               	movlw	90
  1871   0015CC  6E07               	movwf	MSSP_I2C_Master_call_slave@data^0,c
  1872   0015CE  0E62               	movlw	low __ack
  1873   0015D0  6E08               	movwf	MSSP_I2C_Master_call_slave@_ack^0,c
  1874   0015D2  EC44  F019         	call	_MSSP_I2C_Master_call_slave	;wreg free
  1875                           
  1876                           ;main.c: 177:         }else if(data_key_1 == '='){
  1877   0015D6  EF2C  F00B         	goto	l8423
  1878   0015DA                     l8411:
  1879   0015DA  0E3D               	movlw	61
  1880   0015DC  185E               	xorwf	_data_key_1^0,w,c
  1881   0015DE  A4D8               	btfss	status,2,c
  1882   0015E0  EFF4  F00A         	goto	u8351
  1883   0015E4  EFF6  F00A         	goto	u8350
  1884   0015E8                     u8351:
  1885   0015E8  EF02  F00B         	goto	l8415
  1886   0015EC                     u8350:
  1887   0015EC                     
  1888                           ;main.c: 178:             MSSP_I2C_Master_call_slave(&mssp_i2c,0x60,'X',&_ack);
  1889   0015EC  0E6B               	movlw	low _mssp_i2c
  1890   0015EE  6E05               	movwf	MSSP_I2C_Master_call_slave@i2c_obj^0,c
  1891   0015F0  0E60               	movlw	96
  1892   0015F2  6E06               	movwf	MSSP_I2C_Master_call_slave@address^0,c
  1893   0015F4  0E58               	movlw	88
  1894   0015F6  6E07               	movwf	MSSP_I2C_Master_call_slave@data^0,c
  1895   0015F8  0E62               	movlw	low __ack
  1896   0015FA  6E08               	movwf	MSSP_I2C_Master_call_slave@_ack^0,c
  1897   0015FC  EC44  F019         	call	_MSSP_I2C_Master_call_slave	;wreg free
  1898                           
  1899                           ;main.c: 179:         }else if(data_key_1 == '0'){
  1900   001600  EF2C  F00B         	goto	l8423
  1901   001604                     l8415:
  1902   001604  0E30               	movlw	48
  1903   001606  185E               	xorwf	_data_key_1^0,w,c
  1904   001608  A4D8               	btfss	status,2,c
  1905   00160A  EF09  F00B         	goto	u8361
  1906   00160E  EF0B  F00B         	goto	u8360
  1907   001612                     u8361:
  1908   001612  EF17  F00B         	goto	l8419
  1909   001616                     u8360:
  1910   001616                     
  1911                           ;main.c: 180:             MSSP_I2C_Master_call_slave(&mssp_i2c,0x60,'V',&_ack);
  1912   001616  0E6B               	movlw	low _mssp_i2c
  1913   001618  6E05               	movwf	MSSP_I2C_Master_call_slave@i2c_obj^0,c
  1914   00161A  0E60               	movlw	96
  1915   00161C  6E06               	movwf	MSSP_I2C_Master_call_slave@address^0,c
  1916   00161E  0E56               	movlw	86
  1917   001620  6E07               	movwf	MSSP_I2C_Master_call_slave@data^0,c
  1918   001622  0E62               	movlw	low __ack
  1919   001624  6E08               	movwf	MSSP_I2C_Master_call_slave@_ack^0,c
  1920   001626  EC44  F019         	call	_MSSP_I2C_Master_call_slave	;wreg free
  1921                           
  1922                           ;main.c: 181:         }else if(data_key_1 == '#'){
  1923   00162A  EF2C  F00B         	goto	l8423
  1924   00162E                     l8419:
  1925   00162E  0E23               	movlw	35
  1926   001630  185E               	xorwf	_data_key_1^0,w,c
  1927   001632  A4D8               	btfss	status,2,c
  1928   001634  EF1E  F00B         	goto	u8371
  1929   001638  EF20  F00B         	goto	u8370
  1930   00163C                     u8371:
  1931   00163C  EF2C  F00B         	goto	l1728
  1932   001640                     u8370:
  1933   001640                     
  1934                           ;main.c: 182:             MSSP_I2C_Master_call_slave(&mssp_i2c,0x60,'B',&_ack);
  1935   001640  0E6B               	movlw	low _mssp_i2c
  1936   001642  6E05               	movwf	MSSP_I2C_Master_call_slave@i2c_obj^0,c
  1937   001644  0E60               	movlw	96
  1938   001646  6E06               	movwf	MSSP_I2C_Master_call_slave@address^0,c
  1939   001648  0E42               	movlw	66
  1940   00164A  6E07               	movwf	MSSP_I2C_Master_call_slave@data^0,c
  1941   00164C  0E62               	movlw	low __ack
  1942   00164E  6E08               	movwf	MSSP_I2C_Master_call_slave@_ack^0,c
  1943   001650  EC44  F019         	call	_MSSP_I2C_Master_call_slave	;wreg free
  1944   001654  EF2C  F00B         	goto	l8423
  1945   001658                     l1728:
  1946   001658                     l8423:
  1947                           
  1948                           ;main.c: 186:         if(ret_data_2 < 50){
  1949   001658  0E32               	movlw	50
  1950   00165A  6060               	cpfslt	_ret_data_2^0,c
  1951   00165C  EF32  F00B         	goto	u8381
  1952   001660  EF34  F00B         	goto	u8380
  1953   001664                     u8381:
  1954   001664  EF0D  F008         	goto	l8241
  1955   001668                     u8380:
  1956   001668                     
  1957                           ;main.c: 187:             MSSP_I2C_Master_call_slave(&mssp_i2c,0x60,ret_data_2,&_ack);
  1958   001668  0E6B               	movlw	low _mssp_i2c
  1959   00166A  6E05               	movwf	MSSP_I2C_Master_call_slave@i2c_obj^0,c
  1960   00166C  0E60               	movlw	96
  1961   00166E  6E06               	movwf	MSSP_I2C_Master_call_slave@address^0,c
  1962   001670  C060  F007         	movff	_ret_data_2,MSSP_I2C_Master_call_slave@data
  1963   001674  0E62               	movlw	low __ack
  1964   001676  6E08               	movwf	MSSP_I2C_Master_call_slave@_ack^0,c
  1965   001678  EC44  F019         	call	_MSSP_I2C_Master_call_slave	;wreg free
  1966   00167C  EF0D  F008         	goto	l8241
  1967   001680  EF07  F000         	goto	start
  1968   001684                     __end_of_main:
  1969                           	callstack 0
  1970                           
  1971 ;; *************** function _tc74_read_value *****************
  1972 ;; Defined at:
  1973 ;;		line 11 in file "ECU_layer/TC74/hal_tc74.c"
  1974 ;; Parameters:    Size  Location     Type
  1975 ;;  i2c_obj         1   10[COMRAM] PTR const struct .
  1976 ;;		 -> mssp_i2c(15), 
  1977 ;;  i2c_data_1      1   11[COMRAM] unsigned char 
  1978 ;;  i2c_data_2      1   12[COMRAM] unsigned char 
  1979 ;;  ret_data        1   13[COMRAM] PTR unsigned char 
  1980 ;;		 -> ret_data_3(1), ret_data_2(1), ret_data_1(1), 
  1981 ;;  _ack            1   14[COMRAM] PTR unsigned char 
  1982 ;;		 -> _ack(1), 
  1983 ;; Auto vars:     Size  Location     Type
  1984 ;;		None
  1985 ;; Return value:  Size  Location     Type
  1986 ;;                  1    wreg      void 
  1987 ;; Registers used:
  1988 ;;		wreg, fsr2l, fsr2h, status,2, status,0, cstack
  1989 ;; Tracked objects:
  1990 ;;		On entry : 0/0
  1991 ;;		On exit  : 0/0
  1992 ;;		Unchanged: 0/0
  1993 ;; Data sizes:     COMRAM   BANK0   BANK1   BANK2   BANK3   BANK4   BANK5   BANK6   BANK7   BANK8   BANK9  BANK10  BANK1
      +1  BANK12  BANK13  BANK14  BANK15
  1994 ;;      Params:         5       0       0       0       0       0       0       0       0       0       0       0       
      +0       0       0       0       0
  1995 ;;      Locals:         0       0       0       0       0       0       0       0       0       0       0       0       
      +0       0       0       0       0
  1996 ;;      Temps:          0       0       0       0       0       0       0       0       0       0       0       0       
      +0       0       0       0       0
  1997 ;;      Totals:         5       0       0       0       0       0       0       0       0       0       0       0       
      +0       0       0       0       0
  1998 ;;Total ram usage:        5 bytes
  1999 ;; Hardware stack levels used: 1
  2000 ;; Hardware stack levels required when called: 4
  2001 ;; This function calls:
  2002 ;;		_MSSP_I2C_Master_Send_Start
  2003 ;;		_MSSP_I2C_Master_Send_Stop
  2004 ;;		_MSSP_I2C_Master_read_data_in_register
  2005 ;; This function is called by:
  2006 ;;		_main
  2007 ;; This function uses a non-reentrant model
  2008 ;;
  2009                           
  2010                           	psect	text1
  2011   0032BA                     __ptext1:
  2012                           	callstack 0
  2013   0032BA                     _tc74_read_value:
  2014                           	callstack 26
  2015   0032BA                     
  2016                           ;ECU_layer/TC74/hal_tc74.c: 13:     MSSP_I2C_Master_Send_Start(i2c_obj);
  2017   0032BA  C00B  F002         	movff	tc74_read_value@i2c_obj,MSSP_I2C_Master_Send_Start@i2c_obj
  2018   0032BE  EC29  F019         	call	_MSSP_I2C_Master_Send_Start	;wreg free
  2019   0032C2                     
  2020                           ;ECU_layer/TC74/hal_tc74.c: 14:     MSSP_I2C_Master_read_data_in_register(i2c_obj,i2c_da
      +                          ta_1,i2c_data_2,ret_data,_ack);
  2021   0032C2  C00B  F005         	movff	tc74_read_value@i2c_obj,MSSP_I2C_Master_read_data_in_register@i2c_obj
  2022   0032C6  C00C  F006         	movff	tc74_read_value@i2c_data_1,MSSP_I2C_Master_read_data_in_register@i2c_data_1
  2023   0032CA  C00D  F007         	movff	tc74_read_value@i2c_data_2,MSSP_I2C_Master_read_data_in_register@i2c_data_2
  2024   0032CE  C00E  F008         	movff	tc74_read_value@ret_data,MSSP_I2C_Master_read_data_in_register@ret_data
  2025   0032D2  C00F  F009         	movff	tc74_read_value@_ack,MSSP_I2C_Master_read_data_in_register@_ack
  2026   0032D6  EC60  F016         	call	_MSSP_I2C_Master_read_data_in_register	;wreg free
  2027   0032DA                     
  2028                           ;ECU_layer/TC74/hal_tc74.c: 15:     MSSP_I2C_Master_Send_Stop(i2c_obj);
  2029   0032DA  C00B  F002         	movff	tc74_read_value@i2c_obj,MSSP_I2C_Master_Send_Stop@i2c_obj
  2030   0032DE  EC0E  F019         	call	_MSSP_I2C_Master_Send_Stop	;wreg free
  2031   0032E2  0012               	return		;funcret
  2032   0032E4                     __end_of_tc74_read_value:
  2033                           	callstack 0
  2034                           
  2035 ;; *************** function _MSSP_I2C_Master_read_data_in_register *****************
  2036 ;; Defined at:
  2037 ;;		line 242 in file "MKAL_layer/I2C/hal_i2c.c"
  2038 ;; Parameters:    Size  Location     Type
  2039 ;;  i2c_obj         1    4[COMRAM] PTR const struct .
  2040 ;;		 -> mssp_i2c(15), 
  2041 ;;  i2c_data_1      1    5[COMRAM] unsigned char 
  2042 ;;  i2c_data_2      1    6[COMRAM] unsigned char 
  2043 ;;  ret_data        1    7[COMRAM] PTR unsigned char 
  2044 ;;		 -> ret_data_3(1), ret_data_2(1), ret_data_1(1), 
  2045 ;;  _ack            1    8[COMRAM] PTR unsigned char 
  2046 ;;		 -> _ack(1), 
  2047 ;; Auto vars:     Size  Location     Type
  2048 ;;  ret             1    0        unsigned char 
  2049 ;; Return value:  Size  Location     Type
  2050 ;;                  1    wreg      void 
  2051 ;; Registers used:
  2052 ;;		wreg, fsr2l, fsr2h, status,2, status,0, cstack
  2053 ;; Tracked objects:
  2054 ;;		On entry : 0/0
  2055 ;;		On exit  : 0/0
  2056 ;;		Unchanged: 0/0
  2057 ;; Data sizes:     COMRAM   BANK0   BANK1   BANK2   BANK3   BANK4   BANK5   BANK6   BANK7   BANK8   BANK9  BANK10  BANK1
      +1  BANK12  BANK13  BANK14  BANK15
  2058 ;;      Params:         5       0       0       0       0       0       0       0       0       0       0       0       
      +0       0       0       0       0
  2059 ;;      Locals:         0       0       0       0       0       0       0       0       0       0       0       0       
      +0       0       0       0       0
  2060 ;;      Temps:          1       0       0       0       0       0       0       0       0       0       0       0       
      +0       0       0       0       0
  2061 ;;      Totals:         6       0       0       0       0       0       0       0       0       0       0       0       
      +0       0       0       0       0
  2062 ;;Total ram usage:        6 bytes
  2063 ;; Hardware stack levels used: 1
  2064 ;; Hardware stack levels required when called: 3
  2065 ;; This function calls:
  2066 ;;		_MSSP_I2C_Master_Read_Blocking
  2067 ;;		_MSSP_I2C_Master_Send_Repeated_Start
  2068 ;;		_MSSP_I2C_Master_Write_Blocking
  2069 ;; This function is called by:
  2070 ;;		_tc74_read_value
  2071 ;; This function uses a non-reentrant model
  2072 ;;
  2073                           
  2074                           	psect	text2
  2075   002CC0                     __ptext2:
  2076                           	callstack 0
  2077   002CC0                     _MSSP_I2C_Master_read_data_in_register:
  2078                           	callstack 26
  2079   002CC0                     
  2080                           ;MKAL_layer/I2C/hal_i2c.c: 246:     if((((void*)0) == i2c_obj) || (((void*)0) == _ack)){
  2081   002CC0  5005               	movf	MSSP_I2C_Master_read_data_in_register@i2c_obj^0,w,c
  2082   002CC2  B4D8               	btfsc	status,2,c
  2083   002CC4  EF66  F016         	goto	u5631
  2084   002CC8  EF68  F016         	goto	u5630
  2085   002CCC                     u5631:
  2086   002CCC  EF70  F016         	goto	l6371
  2087   002CD0                     u5630:
  2088   002CD0  5009               	movf	MSSP_I2C_Master_read_data_in_register@_ack^0,w,c
  2089   002CD2  A4D8               	btfss	status,2,c
  2090   002CD4  EF6E  F016         	goto	u5641
  2091   002CD8  EF70  F016         	goto	u5640
  2092   002CDC                     u5641:
  2093   002CDC  EF72  F016         	goto	l6373
  2094   002CE0                     u5640:
  2095   002CE0                     l6371:
  2096                           
  2097                           ;MKAL_layer/I2C/hal_i2c.c: 248:     }
  2098   002CE0  EF9D  F016         	goto	l880
  2099   002CE4                     l6373:
  2100                           
  2101                           ;MKAL_layer/I2C/hal_i2c.c: 250:          MSSP_I2C_Master_Write_Blocking(i2c_obj,i2c_data
      +                          _1,_ack);
  2102   002CE4  C005  F002         	movff	MSSP_I2C_Master_read_data_in_register@i2c_obj,MSSP_I2C_Master_Write_Blocking@i2c_
      +                          obj
  2103   002CE8  C006  F003         	movff	MSSP_I2C_Master_read_data_in_register@i2c_data_1,MSSP_I2C_Master_Write_Blocking@i
      +                          2c_data
  2104   002CEC  C009  F004         	movff	MSSP_I2C_Master_read_data_in_register@_ack,MSSP_I2C_Master_Write_Blocking@_ack
  2105   002CF0  EC40  F018         	call	_MSSP_I2C_Master_Write_Blocking	;wreg free
  2106                           
  2107                           ;MKAL_layer/I2C/hal_i2c.c: 251:          MSSP_I2C_Master_Write_Blocking(i2c_obj,i2c_data
      +                          _2,_ack);
  2108   002CF4  C005  F002         	movff	MSSP_I2C_Master_read_data_in_register@i2c_obj,MSSP_I2C_Master_Write_Blocking@i2c_
      +                          obj
  2109   002CF8  C007  F003         	movff	MSSP_I2C_Master_read_data_in_register@i2c_data_2,MSSP_I2C_Master_Write_Blocking@i
      +                          2c_data
  2110   002CFC  C009  F004         	movff	MSSP_I2C_Master_read_data_in_register@_ack,MSSP_I2C_Master_Write_Blocking@_ack
  2111   002D00  EC40  F018         	call	_MSSP_I2C_Master_Write_Blocking	;wreg free
  2112   002D04                     
  2113                           ;MKAL_layer/I2C/hal_i2c.c: 252:          MSSP_I2C_Master_Send_Repeated_Start(i2c_obj);
  2114   002D04  C005  F002         	movff	MSSP_I2C_Master_read_data_in_register@i2c_obj,MSSP_I2C_Master_Send_Repeated_Start
      +                          @i2c_obj
  2115   002D08  EC87  F019         	call	_MSSP_I2C_Master_Send_Repeated_Start	;wreg free
  2116   002D0C                     
  2117                           ;MKAL_layer/I2C/hal_i2c.c: 253:          MSSP_I2C_Master_Write_Blocking(i2c_obj,(i2c_dat
      +                          a_1 + 0x01),_ack);
  2118   002D0C  C005  F002         	movff	MSSP_I2C_Master_read_data_in_register@i2c_obj,MSSP_I2C_Master_Write_Blocking@i2c_
      +                          obj
  2119   002D10  2806               	incf	MSSP_I2C_Master_read_data_in_register@i2c_data_1^0,w,c
  2120   002D12  6E03               	movwf	MSSP_I2C_Master_Write_Blocking@i2c_data^0,c
  2121   002D14  C009  F004         	movff	MSSP_I2C_Master_read_data_in_register@_ack,MSSP_I2C_Master_Write_Blocking@_ack
  2122   002D18  EC40  F018         	call	_MSSP_I2C_Master_Write_Blocking	;wreg free
  2123   002D1C                     
  2124                           ;MKAL_layer/I2C/hal_i2c.c: 254:          MSSP_I2C_Master_Read_Blocking(i2c_obj,1,ret_dat
      +                          a);
  2125   002D1C  C005  F002         	movff	MSSP_I2C_Master_read_data_in_register@i2c_obj,MSSP_I2C_Master_Read_Blocking@i2c_o
      +                          bj
  2126   002D20  0E01               	movlw	1
  2127   002D22  6E03               	movwf	MSSP_I2C_Master_Read_Blocking@ack^0,c
  2128   002D24  C008  F004         	movff	MSSP_I2C_Master_read_data_in_register@ret_data,MSSP_I2C_Master_Read_Blocking@i2c_
      +                          data
  2129   002D28  EC1C  F016         	call	_MSSP_I2C_Master_Read_Blocking	;wreg free
  2130   002D2C                     
  2131                           ;MKAL_layer/I2C/hal_i2c.c: 255:          _delay((unsigned long)((10)*(4000000UL/4000.0))
      +                          );
  2132   002D2C  0E0D               	movlw	13
  2133   002D2E  6E0A               	movwf	??_MSSP_I2C_Master_read_data_in_register^0,c
  2134   002D30  0EFC               	movlw	252
  2135   002D32                     u8477:
  2136   002D32  2EE8               	decfsz	wreg,f,c
  2137   002D34  D7FE               	bra	u8477
  2138   002D36  2E0A               	decfsz	??_MSSP_I2C_Master_read_data_in_register^0,f,c
  2139   002D38  D7FC               	bra	u8477
  2140   002D3A                     l880:
  2141   002D3A  0012               	return		;funcret
  2142   002D3C                     __end_of_MSSP_I2C_Master_read_data_in_register:
  2143                           	callstack 0
  2144                           
  2145 ;; *************** function _MSSP_I2C_Master_Send_Repeated_Start *****************
  2146 ;; Defined at:
  2147 ;;		line 124 in file "MKAL_layer/I2C/hal_i2c.c"
  2148 ;; Parameters:    Size  Location     Type
  2149 ;;  i2c_obj         1    1[COMRAM] PTR const struct .
  2150 ;;		 -> mssp_i2c(15), 
  2151 ;; Auto vars:     Size  Location     Type
  2152 ;;  ret             1    0        unsigned char 
  2153 ;; Return value:  Size  Location     Type
  2154 ;;                  1    wreg      unsigned char 
  2155 ;; Registers used:
  2156 ;;		wreg, status,2
  2157 ;; Tracked objects:
  2158 ;;		On entry : 0/0
  2159 ;;		On exit  : 0/0
  2160 ;;		Unchanged: 0/0
  2161 ;; Data sizes:     COMRAM   BANK0   BANK1   BANK2   BANK3   BANK4   BANK5   BANK6   BANK7   BANK8   BANK9  BANK10  BANK1
      +1  BANK12  BANK13  BANK14  BANK15
  2162 ;;      Params:         1       0       0       0       0       0       0       0       0       0       0       0       
      +0       0       0       0       0
  2163 ;;      Locals:         0       0       0       0       0       0       0       0       0       0       0       0       
      +0       0       0       0       0
  2164 ;;      Temps:          0       0       0       0       0       0       0       0       0       0       0       0       
      +0       0       0       0       0
  2165 ;;      Totals:         1       0       0       0       0       0       0       0       0       0       0       0       
      +0       0       0       0       0
  2166 ;;Total ram usage:        1 bytes
  2167 ;; Hardware stack levels used: 1
  2168 ;; Hardware stack levels required when called: 2
  2169 ;; This function calls:
  2170 ;;		Nothing
  2171 ;; This function is called by:
  2172 ;;		_MSSP_I2C_Master_read_data_in_register
  2173 ;; This function uses a non-reentrant model
  2174 ;;
  2175                           
  2176                           	psect	text3
  2177   00330E                     __ptext3:
  2178                           	callstack 0
  2179   00330E                     _MSSP_I2C_Master_Send_Repeated_Start:
  2180                           	callstack 26
  2181   00330E                     
  2182                           ;MKAL_layer/I2C/hal_i2c.c: 126:     if(((void*)0) == i2c_obj){
  2183   00330E  5002               	movf	MSSP_I2C_Master_Send_Repeated_Start@i2c_obj^0,w,c
  2184   003310  A4D8               	btfss	status,2,c
  2185   003312  EF8D  F019         	goto	u5271
  2186   003316  EF8F  F019         	goto	u5270
  2187   00331A                     u5271:
  2188   00331A  EF91  F019         	goto	l812
  2189   00331E                     u5270:
  2190   00331E                     
  2191                           ;MKAL_layer/I2C/hal_i2c.c: 128:     }
  2192   00331E  EF9A  F019         	goto	l817
  2193   003322                     l812:
  2194                           
  2195                           ;MKAL_layer/I2C/hal_i2c.c: 131:         SSPCON2bits.RSEN = 1;
  2196   003322  82C5               	bsf	197,1,c	;volatile
  2197   003324                     l814:
  2198   003324  B2C5               	btfsc	197,1,c	;volatile
  2199   003326  EF97  F019         	goto	u5281
  2200   00332A  EF99  F019         	goto	u5280
  2201   00332E                     u5281:
  2202   00332E  EF92  F019         	goto	l814
  2203   003332                     u5280:
  2204   003332                     
  2205                           ;MKAL_layer/I2C/hal_i2c.c: 135:         PIR1bits.SSPIF = 0;
  2206   003332  969E               	bcf	158,3,c	;volatile
  2207   003334                     l817:
  2208   003334  0012               	return		;funcret
  2209   003336                     __end_of_MSSP_I2C_Master_Send_Repeated_Start:
  2210                           	callstack 0
  2211                           
  2212 ;; *************** function _MSSP_I2C_Master_Read_Blocking *****************
  2213 ;; Defined at:
  2214 ;;		line 199 in file "MKAL_layer/I2C/hal_i2c.c"
  2215 ;; Parameters:    Size  Location     Type
  2216 ;;  i2c_obj         1    1[COMRAM] PTR const struct .
  2217 ;;		 -> mssp_i2c(15), 
  2218 ;;  ack             1    2[COMRAM] unsigned char 
  2219 ;;  i2c_data        1    3[COMRAM] PTR unsigned char 
  2220 ;;		 -> ret_data_3(1), ret_data_2(1), ret_data_1(1), 
  2221 ;; Auto vars:     Size  Location     Type
  2222 ;;  ret             1    0        unsigned char 
  2223 ;; Return value:  Size  Location     Type
  2224 ;;                  1    wreg      unsigned char 
  2225 ;; Registers used:
  2226 ;;		wreg, fsr2l, fsr2h, status,2, status,0
  2227 ;; Tracked objects:
  2228 ;;		On entry : 0/0
  2229 ;;		On exit  : 0/0
  2230 ;;		Unchanged: 0/0
  2231 ;; Data sizes:     COMRAM   BANK0   BANK1   BANK2   BANK3   BANK4   BANK5   BANK6   BANK7   BANK8   BANK9  BANK10  BANK1
      +1  BANK12  BANK13  BANK14  BANK15
  2232 ;;      Params:         3       0       0       0       0       0       0       0       0       0       0       0       
      +0       0       0       0       0
  2233 ;;      Locals:         0       0       0       0       0       0       0       0       0       0       0       0       
      +0       0       0       0       0
  2234 ;;      Temps:          0       0       0       0       0       0       0       0       0       0       0       0       
      +0       0       0       0       0
  2235 ;;      Totals:         3       0       0       0       0       0       0       0       0       0       0       0       
      +0       0       0       0       0
  2236 ;;Total ram usage:        3 bytes
  2237 ;; Hardware stack levels used: 1
  2238 ;; Hardware stack levels required when called: 2
  2239 ;; This function calls:
  2240 ;;		Nothing
  2241 ;; This function is called by:
  2242 ;;		_MSSP_I2C_Master_read_data_in_register
  2243 ;;		_MSSP_I2C_Master_call_slave_read
  2244 ;; This function uses a non-reentrant model
  2245 ;;
  2246                           
  2247                           	psect	text4
  2248   002C38                     __ptext4:
  2249                           	callstack 0
  2250   002C38                     _MSSP_I2C_Master_Read_Blocking:
  2251                           	callstack 26
  2252   002C38                     
  2253                           ;MKAL_layer/I2C/hal_i2c.c: 201:     if((((void*)0) == i2c_obj) || (((void*)0) == i2c_dat
      +                          a)){
  2254   002C38  5002               	movf	MSSP_I2C_Master_Read_Blocking@i2c_obj^0,w,c
  2255   002C3A  B4D8               	btfsc	status,2,c
  2256   002C3C  EF22  F016         	goto	u5331
  2257   002C40  EF24  F016         	goto	u5330
  2258   002C44                     u5331:
  2259   002C44  EF2C  F016         	goto	l6169
  2260   002C48                     u5330:
  2261   002C48  5004               	movf	MSSP_I2C_Master_Read_Blocking@i2c_data^0,w,c
  2262   002C4A  A4D8               	btfss	status,2,c
  2263   002C4C  EF2A  F016         	goto	u5341
  2264   002C50  EF2C  F016         	goto	u5340
  2265   002C54                     u5341:
  2266   002C54  EF2E  F016         	goto	l849
  2267   002C58                     u5340:
  2268   002C58                     l6169:
  2269                           
  2270                           ;MKAL_layer/I2C/hal_i2c.c: 203:     }
  2271   002C58  EF5F  F016         	goto	l866
  2272   002C5C                     l849:
  2273                           
  2274                           ;MKAL_layer/I2C/hal_i2c.c: 206:         (SSPCON2bits.RCEN = 1);
  2275   002C5C  86C5               	bsf	197,3,c	;volatile
  2276   002C5E                     l853:
  2277   002C5E  A0C7               	btfss	199,0,c	;volatile
  2278   002C60  EF34  F016         	goto	u5351
  2279   002C64  EF36  F016         	goto	u5350
  2280   002C68                     u5351:
  2281   002C68  EF2F  F016         	goto	l853
  2282   002C6C                     u5350:
  2283   002C6C                     
  2284                           ;MKAL_layer/I2C/hal_i2c.c: 210:         *i2c_data = SSPBUF;
  2285   002C6C  5004               	movf	MSSP_I2C_Master_Read_Blocking@i2c_data^0,w,c
  2286   002C6E  6ED9               	movwf	fsr2l,c
  2287   002C70  6ADA               	clrf	fsr2h,c
  2288   002C72  CFC9 FFDF          	movff	4041,indf2	;volatile
  2289   002C76                     
  2290                           ;MKAL_layer/I2C/hal_i2c.c: 212:         if(0 == ack){
  2291   002C76  5003               	movf	MSSP_I2C_Master_Read_Blocking@ack^0,w,c
  2292   002C78  A4D8               	btfss	status,2,c
  2293   002C7A  EF41  F016         	goto	u5361
  2294   002C7E  EF43  F016         	goto	u5360
  2295   002C82                     u5361:
  2296   002C82  EF4E  F016         	goto	l6177
  2297   002C86                     u5360:
  2298   002C86                     
  2299                           ;MKAL_layer/I2C/hal_i2c.c: 213:             SSPCON2bits.ACKDT = 0;
  2300   002C86  9AC5               	bcf	197,5,c	;volatile
  2301                           
  2302                           ;MKAL_layer/I2C/hal_i2c.c: 215:             SSPCON2bits.ACKEN = 1;
  2303   002C88  88C5               	bsf	197,4,c	;volatile
  2304   002C8A                     l857:
  2305   002C8A  B8C5               	btfsc	197,4,c	;volatile
  2306   002C8C  EF4A  F016         	goto	u5371
  2307   002C90  EF4C  F016         	goto	u5370
  2308   002C94                     u5371:
  2309   002C94  EF45  F016         	goto	l857
  2310   002C98                     u5370:
  2311   002C98  EF5F  F016         	goto	l6181
  2312   002C9C                     l6177:
  2313   002C9C  0403               	decf	MSSP_I2C_Master_Read_Blocking@ack^0,w,c
  2314   002C9E  A4D8               	btfss	status,2,c
  2315   002CA0  EF54  F016         	goto	u5381
  2316   002CA4  EF56  F016         	goto	u5380
  2317   002CA8                     u5381:
  2318   002CA8  EF5F  F016         	goto	l6181
  2319   002CAC                     u5380:
  2320   002CAC                     
  2321                           ;MKAL_layer/I2C/hal_i2c.c: 219:             SSPCON2bits.ACKDT = 1;
  2322   002CAC  8AC5               	bsf	197,5,c	;volatile
  2323                           
  2324                           ;MKAL_layer/I2C/hal_i2c.c: 221:             SSPCON2bits.ACKEN = 1;
  2325   002CAE  88C5               	bsf	197,4,c	;volatile
  2326   002CB0                     l862:
  2327   002CB0  B8C5               	btfsc	197,4,c	;volatile
  2328   002CB2  EF5D  F016         	goto	u5391
  2329   002CB6  EF5F  F016         	goto	u5390
  2330   002CBA                     u5391:
  2331   002CBA  EF58  F016         	goto	l862
  2332   002CBE                     u5390:
  2333   002CBE                     l6181:
  2334   002CBE                     l866:
  2335   002CBE  0012               	return		;funcret
  2336   002CC0                     __end_of_MSSP_I2C_Master_Read_Blocking:
  2337                           	callstack 0
  2338                           
  2339 ;; *************** function _led_turn_on *****************
  2340 ;; Defined at:
  2341 ;;		line 29 in file "ECU_layer/LED/ecu_led.c"
  2342 ;; Parameters:    Size  Location     Type
  2343 ;;  led             1    9[COMRAM] PTR const struct .
  2344 ;;		 -> led6(1), led4(1), 
  2345 ;; Auto vars:     Size  Location     Type
  2346 ;;  pin_config      1   11[COMRAM] struct .
  2347 ;;  ret             1    0        unsigned char 
  2348 ;; Return value:  Size  Location     Type
  2349 ;;                  1    wreg      unsigned char 
  2350 ;; Registers used:
  2351 ;;		wreg, fsr2l, fsr2h, status,2, status,0, prodl, prodh, cstack
  2352 ;; Tracked objects:
  2353 ;;		On entry : 0/0
  2354 ;;		On exit  : 0/0
  2355 ;;		Unchanged: 0/0
  2356 ;; Data sizes:     COMRAM   BANK0   BANK1   BANK2   BANK3   BANK4   BANK5   BANK6   BANK7   BANK8   BANK9  BANK10  BANK1
      +1  BANK12  BANK13  BANK14  BANK15
  2357 ;;      Params:         1       0       0       0       0       0       0       0       0       0       0       0       
      +0       0       0       0       0
  2358 ;;      Locals:         1       0       0       0       0       0       0       0       0       0       0       0       
      +0       0       0       0       0
  2359 ;;      Temps:          1       0       0       0       0       0       0       0       0       0       0       0       
      +0       0       0       0       0
  2360 ;;      Totals:         3       0       0       0       0       0       0       0       0       0       0       0       
      +0       0       0       0       0
  2361 ;;Total ram usage:        3 bytes
  2362 ;; Hardware stack levels used: 1
  2363 ;; Hardware stack levels required when called: 3
  2364 ;; This function calls:
  2365 ;;		_GPIO_pIN_WRITE_LOGIC
  2366 ;; This function is called by:
  2367 ;;		_main
  2368 ;; This function uses a non-reentrant model
  2369 ;;
  2370                           
  2371                           	psect	text5
  2372   002E26                     __ptext5:
  2373                           	callstack 0
  2374   002E26                     _led_turn_on:
  2375                           	callstack 27
  2376   002E26                     
  2377                           ;ECU_layer/LED/ecu_led.c: 32:     pin_config_t pin_config ={.port = led->port_name ,
  2378   002E26  C05C  F00C         	movff	led_turn_on@F3065,led_turn_on@pin_config
  2379   002E2A  500A               	movf	led_turn_on@led^0,w,c
  2380   002E2C  6ED9               	movwf	fsr2l,c
  2381   002E2E  6ADA               	clrf	fsr2h,c
  2382   002E30  50DF               	movf	223,w,c
  2383   002E32  0B0F               	andlw	15
  2384   002E34  6E0B               	movwf	??_led_turn_on^0,c
  2385   002E36  500C               	movf	led_turn_on@pin_config^0,w,c
  2386   002E38  180B               	xorwf	??_led_turn_on^0,w,c
  2387   002E3A  0BF8               	andlw	-8
  2388   002E3C  180B               	xorwf	??_led_turn_on^0,w,c
  2389   002E3E  6E0C               	movwf	led_turn_on@pin_config^0,c
  2390   002E40  500A               	movf	led_turn_on@led^0,w,c
  2391   002E42  6ED9               	movwf	fsr2l,c
  2392   002E44  6ADA               	clrf	fsr2h,c
  2393   002E46  38DF               	swapf	223,w,c
  2394   002E48  0B07               	andlw	7
  2395   002E4A  6E0B               	movwf	??_led_turn_on^0,c
  2396   002E4C  460B               	rlncf	??_led_turn_on^0,f,c
  2397   002E4E  460B               	rlncf	??_led_turn_on^0,f,c
  2398   002E50  460B               	rlncf	??_led_turn_on^0,f,c
  2399   002E52  500C               	movf	led_turn_on@pin_config^0,w,c
  2400   002E54  180B               	xorwf	??_led_turn_on^0,w,c
  2401   002E56  0BC7               	andlw	-57
  2402   002E58  180B               	xorwf	??_led_turn_on^0,w,c
  2403   002E5A  6E0C               	movwf	led_turn_on@pin_config^0,c
  2404   002E5C  9C0C               	bcf	led_turn_on@pin_config^0,6,c
  2405   002E5E  500A               	movf	led_turn_on@led^0,w,c
  2406   002E60  6ED9               	movwf	fsr2l,c
  2407   002E62  6ADA               	clrf	fsr2h,c
  2408   002E64  AEDF               	btfss	indf2,7,c
  2409   002E66  D002               	bra	u5895
  2410   002E68  8E0C               	bsf	led_turn_on@pin_config^0,7,c
  2411   002E6A  D001               	bra	u5897
  2412   002E6C                     u5895:
  2413   002E6C  9E0C               	bcf	led_turn_on@pin_config^0,7,c
  2414   002E6E                     u5897:
  2415   002E6E                     
  2416                           ;ECU_layer/LED/ecu_led.c: 36:     if(((void*)0) == led)
  2417   002E6E  500A               	movf	led_turn_on@led^0,w,c
  2418   002E70  A4D8               	btfss	status,2,c
  2419   002E72  EF3D  F017         	goto	u5901
  2420   002E76  EF3F  F017         	goto	u5900
  2421   002E7A                     u5901:
  2422   002E7A  EF41  F017         	goto	l6607
  2423   002E7E                     u5900:
  2424   002E7E                     
  2425                           ;ECU_layer/LED/ecu_led.c: 39:     }
  2426   002E7E  EF47  F017         	goto	l232
  2427   002E82                     l6607:
  2428   002E82  0E0C               	movlw	low led_turn_on@pin_config
  2429   002E84  6E02               	movwf	GPIO_pIN_WRITE_LOGIC@config_pin^0,c
  2430   002E86  0E01               	movlw	1
  2431   002E88  6E03               	movwf	GPIO_pIN_WRITE_LOGIC@logic^0,c
  2432   002E8A  EC67  F013         	call	_GPIO_pIN_WRITE_LOGIC	;wreg free
  2433   002E8E                     l232:
  2434   002E8E  0012               	return		;funcret
  2435   002E90                     __end_of_led_turn_on:
  2436                           	callstack 0
  2437                           
  2438 ;; *************** function _led_turn_off *****************
  2439 ;; Defined at:
  2440 ;;		line 49 in file "ECU_layer/LED/ecu_led.c"
  2441 ;; Parameters:    Size  Location     Type
  2442 ;;  led             1    9[COMRAM] PTR const struct .
  2443 ;;		 -> led6(1), led4(1), 
  2444 ;; Auto vars:     Size  Location     Type
  2445 ;;  pin_config      1   11[COMRAM] struct .
  2446 ;;  ret             1    0        unsigned char 
  2447 ;; Return value:  Size  Location     Type
  2448 ;;                  1    wreg      unsigned char 
  2449 ;; Registers used:
  2450 ;;		wreg, fsr2l, fsr2h, status,2, status,0, prodl, prodh, cstack
  2451 ;; Tracked objects:
  2452 ;;		On entry : 0/0
  2453 ;;		On exit  : 0/0
  2454 ;;		Unchanged: 0/0
  2455 ;; Data sizes:     COMRAM   BANK0   BANK1   BANK2   BANK3   BANK4   BANK5   BANK6   BANK7   BANK8   BANK9  BANK10  BANK1
      +1  BANK12  BANK13  BANK14  BANK15
  2456 ;;      Params:         1       0       0       0       0       0       0       0       0       0       0       0       
      +0       0       0       0       0
  2457 ;;      Locals:         1       0       0       0       0       0       0       0       0       0       0       0       
      +0       0       0       0       0
  2458 ;;      Temps:          1       0       0       0       0       0       0       0       0       0       0       0       
      +0       0       0       0       0
  2459 ;;      Totals:         3       0       0       0       0       0       0       0       0       0       0       0       
      +0       0       0       0       0
  2460 ;;Total ram usage:        3 bytes
  2461 ;; Hardware stack levels used: 1
  2462 ;; Hardware stack levels required when called: 3
  2463 ;; This function calls:
  2464 ;;		_GPIO_pIN_WRITE_LOGIC
  2465 ;; This function is called by:
  2466 ;;		_main
  2467 ;; This function uses a non-reentrant model
  2468 ;;
  2469                           
  2470                           	psect	text6
  2471   002E90                     __ptext6:
  2472                           	callstack 0
  2473   002E90                     _led_turn_off:
  2474                           	callstack 27
  2475   002E90                     
  2476                           ;ECU_layer/LED/ecu_led.c: 52:     pin_config_t pin_config ={.port = led->port_name ,
  2477   002E90  C05B  F00C         	movff	led_turn_off@F3070,led_turn_off@pin_config
  2478   002E94  500A               	movf	led_turn_off@led^0,w,c
  2479   002E96  6ED9               	movwf	fsr2l,c
  2480   002E98  6ADA               	clrf	fsr2h,c
  2481   002E9A  50DF               	movf	223,w,c
  2482   002E9C  0B0F               	andlw	15
  2483   002E9E  6E0B               	movwf	??_led_turn_off^0,c
  2484   002EA0  500C               	movf	led_turn_off@pin_config^0,w,c
  2485   002EA2  180B               	xorwf	??_led_turn_off^0,w,c
  2486   002EA4  0BF8               	andlw	-8
  2487   002EA6  180B               	xorwf	??_led_turn_off^0,w,c
  2488   002EA8  6E0C               	movwf	led_turn_off@pin_config^0,c
  2489   002EAA  500A               	movf	led_turn_off@led^0,w,c
  2490   002EAC  6ED9               	movwf	fsr2l,c
  2491   002EAE  6ADA               	clrf	fsr2h,c
  2492   002EB0  38DF               	swapf	223,w,c
  2493   002EB2  0B07               	andlw	7
  2494   002EB4  6E0B               	movwf	??_led_turn_off^0,c
  2495   002EB6  460B               	rlncf	??_led_turn_off^0,f,c
  2496   002EB8  460B               	rlncf	??_led_turn_off^0,f,c
  2497   002EBA  460B               	rlncf	??_led_turn_off^0,f,c
  2498   002EBC  500C               	movf	led_turn_off@pin_config^0,w,c
  2499   002EBE  180B               	xorwf	??_led_turn_off^0,w,c
  2500   002EC0  0BC7               	andlw	-57
  2501   002EC2  180B               	xorwf	??_led_turn_off^0,w,c
  2502   002EC4  6E0C               	movwf	led_turn_off@pin_config^0,c
  2503   002EC6  9C0C               	bcf	led_turn_off@pin_config^0,6,c
  2504   002EC8  500A               	movf	led_turn_off@led^0,w,c
  2505   002ECA  6ED9               	movwf	fsr2l,c
  2506   002ECC  6ADA               	clrf	fsr2h,c
  2507   002ECE  AEDF               	btfss	indf2,7,c
  2508   002ED0  D002               	bra	u5915
  2509   002ED2  8E0C               	bsf	led_turn_off@pin_config^0,7,c
  2510   002ED4  D001               	bra	u5917
  2511   002ED6                     u5915:
  2512   002ED6  9E0C               	bcf	led_turn_off@pin_config^0,7,c
  2513   002ED8                     u5917:
  2514   002ED8                     
  2515                           ;ECU_layer/LED/ecu_led.c: 56:     if(((void*)0) == led)
  2516   002ED8  500A               	movf	led_turn_off@led^0,w,c
  2517   002EDA  A4D8               	btfss	status,2,c
  2518   002EDC  EF72  F017         	goto	u5921
  2519   002EE0  EF74  F017         	goto	u5920
  2520   002EE4                     u5921:
  2521   002EE4  EF76  F017         	goto	l6627
  2522   002EE8                     u5920:
  2523   002EE8                     
  2524                           ;ECU_layer/LED/ecu_led.c: 59:     }
  2525   002EE8  EF7C  F017         	goto	l239
  2526   002EEC                     l6627:
  2527   002EEC  0E0C               	movlw	low led_turn_off@pin_config
  2528   002EEE  6E02               	movwf	GPIO_pIN_WRITE_LOGIC@config_pin^0,c
  2529   002EF0  0E00               	movlw	0
  2530   002EF2  6E03               	movwf	GPIO_pIN_WRITE_LOGIC@logic^0,c
  2531   002EF4  EC67  F013         	call	_GPIO_pIN_WRITE_LOGIC	;wreg free
  2532   002EF8                     l239:
  2533   002EF8  0012               	return		;funcret
  2534   002EFA                     __end_of_led_turn_off:
  2535                           	callstack 0
  2536                           
  2537 ;; *************** function _keypad_get_value *****************
  2538 ;; Defined at:
  2539 ;;		line 31 in file "ECU_layer/matrix_keypad/ecu_keymap.c"
  2540 ;; Parameters:    Size  Location     Type
  2541 ;;  matrix_keypa    1    9[COMRAM] PTR const struct .
  2542 ;;		 -> matrix_keypad(8), 
  2543 ;;  value           1   10[COMRAM] PTR unsigned char 
  2544 ;;		 -> data_key_1(1), 
  2545 ;; Auto vars:     Size  Location     Type
  2546 ;;  l_colum_coun    1   15[COMRAM] unsigned char 
  2547 ;;  l_row_counte    1   14[COMRAM] unsigned char 
  2548 ;;  l_counter       1   13[COMRAM] unsigned char 
  2549 ;;  colum_logic     1   12[COMRAM] unsigned char 
  2550 ;;  ret             1    0        unsigned char 
  2551 ;; Return value:  Size  Location     Type
  2552 ;;                  1    wreg      unsigned char 
  2553 ;; Registers used:
  2554 ;;		wreg, fsr1l, fsr1h, fsr2l, fsr2h, status,2, status,0, tblptrl, tblptrh, tblptru, prodl, prodh, cstack
  2555 ;; Tracked objects:
  2556 ;;		On entry : 0/0
  2557 ;;		On exit  : 0/0
  2558 ;;		Unchanged: 0/0
  2559 ;; Data sizes:     COMRAM   BANK0   BANK1   BANK2   BANK3   BANK4   BANK5   BANK6   BANK7   BANK8   BANK9  BANK10  BANK1
      +1  BANK12  BANK13  BANK14  BANK15
  2560 ;;      Params:         2       0       0       0       0       0       0       0       0       0       0       0       
      +0       0       0       0       0
  2561 ;;      Locals:         4       0       0       0       0       0       0       0       0       0       0       0       
      +0       0       0       0       0
  2562 ;;      Temps:          1       0       0       0       0       0       0       0       0       0       0       0       
      +0       0       0       0       0
  2563 ;;      Totals:         7       0       0       0       0       0       0       0       0       0       0       0       
      +0       0       0       0       0
  2564 ;;Total ram usage:        7 bytes
  2565 ;; Hardware stack levels used: 1
  2566 ;; Hardware stack levels required when called: 3
  2567 ;; This function calls:
  2568 ;;		_GPIO_pIN_READ_LOGIC
  2569 ;;		_GPIO_pIN_WRITE_LOGIC
  2570 ;; This function is called by:
  2571 ;;		_main
  2572 ;; This function uses a non-reentrant model
  2573 ;;
  2574                           
  2575                           	psect	text7
  2576   0028E4                     __ptext7:
  2577                           	callstack 0
  2578   0028E4                     _keypad_get_value:
  2579                           	callstack 27
  2580   0028E4                     
  2581                           ;ECU_layer/matrix_keypad/ecu_keymap.c: 33:       uint8 l_row_counter =0 ,l_colum_counter
      +                          =0 ,l_counter =0, colum_logic=0;
  2582   0028E4  0E00               	movlw	0
  2583   0028E6  6E0F               	movwf	keypad_get_value@l_row_counter^0,c
  2584   0028E8  0E00               	movlw	0
  2585   0028EA  6E10               	movwf	keypad_get_value@l_colum_counter^0,c
  2586   0028EC  0E00               	movlw	0
  2587   0028EE  6E0E               	movwf	keypad_get_value@l_counter^0,c
  2588   0028F0  0E00               	movlw	0
  2589   0028F2  6E0D               	movwf	keypad_get_value@colum_logic^0,c
  2590                           
  2591                           ;ECU_layer/matrix_keypad/ecu_keymap.c: 34:     if ((((void*)0) == matrix_keypad) || (((v
      +                          oid*)0) == value)){
  2592   0028F4  500A               	movf	keypad_get_value@matrix_keypad^0,w,c
  2593   0028F6  B4D8               	btfsc	status,2,c
  2594   0028F8  EF80  F014         	goto	u5931
  2595   0028FC  EF82  F014         	goto	u5930
  2596   002900                     u5931:
  2597   002900  EF8A  F014         	goto	l6635
  2598   002904                     u5930:
  2599   002904  500B               	movf	keypad_get_value@value^0,w,c
  2600   002906  A4D8               	btfss	status,2,c
  2601   002908  EF88  F014         	goto	u5941
  2602   00290C  EF8A  F014         	goto	u5940
  2603   002910                     u5941:
  2604   002910  EF8C  F014         	goto	l6637
  2605   002914                     u5940:
  2606   002914                     l6635:
  2607                           
  2608                           ;ECU_layer/matrix_keypad/ecu_keymap.c: 36:     }
  2609   002914  EFE4  F014         	goto	l281
  2610   002918                     l6637:
  2611                           
  2612                           ;ECU_layer/matrix_keypad/ecu_keymap.c: 38:         for(l_row_counter=0 ;l_row_counter <4
      +                          ; l_row_counter++){
  2613   002918  0E00               	movlw	0
  2614   00291A  6E0F               	movwf	keypad_get_value@l_row_counter^0,c
  2615   00291C                     l6643:
  2616                           
  2617                           ;ECU_layer/matrix_keypad/ecu_keymap.c: 39:             for(l_counter=0 ;l_counter <4; l_
      +                          counter++){
  2618   00291C  0E00               	movlw	0
  2619   00291E  6E0E               	movwf	keypad_get_value@l_counter^0,c
  2620   002920                     l6649:
  2621   002920  500A               	movf	keypad_get_value@matrix_keypad^0,w,c
  2622   002922  240E               	addwf	keypad_get_value@l_counter^0,w,c
  2623   002924  6E02               	movwf	GPIO_pIN_WRITE_LOGIC@config_pin^0,c
  2624   002926  0E00               	movlw	0
  2625   002928  6E03               	movwf	GPIO_pIN_WRITE_LOGIC@logic^0,c
  2626   00292A  EC67  F013         	call	_GPIO_pIN_WRITE_LOGIC	;wreg free
  2627   00292E                     
  2628                           ;ECU_layer/matrix_keypad/ecu_keymap.c: 41:         }
  2629   00292E  2A0E               	incf	keypad_get_value@l_counter^0,f,c
  2630   002930  0E03               	movlw	3
  2631   002932  640E               	cpfsgt	keypad_get_value@l_counter^0,c
  2632   002934  EF9E  F014         	goto	u5951
  2633   002938  EFA0  F014         	goto	u5950
  2634   00293C                     u5951:
  2635   00293C  EF90  F014         	goto	l6649
  2636   002940                     u5950:
  2637   002940  500A               	movf	keypad_get_value@matrix_keypad^0,w,c
  2638   002942  240F               	addwf	keypad_get_value@l_row_counter^0,w,c
  2639   002944  6E02               	movwf	GPIO_pIN_WRITE_LOGIC@config_pin^0,c
  2640   002946  0E01               	movlw	1
  2641   002948  6E03               	movwf	GPIO_pIN_WRITE_LOGIC@logic^0,c
  2642   00294A  EC67  F013         	call	_GPIO_pIN_WRITE_LOGIC	;wreg free
  2643   00294E                     
  2644                           ;ECU_layer/matrix_keypad/ecu_keymap.c: 43:             _delay((unsigned long)((50)*(4000
      +                          000UL/4000.0)));
  2645   00294E  0E41               	movlw	65
  2646   002950  6E0C               	movwf	??_keypad_get_value^0,c
  2647   002952  0EEE               	movlw	238
  2648   002954                     u8487:
  2649   002954  2EE8               	decfsz	wreg,f,c
  2650   002956  D7FE               	bra	u8487
  2651   002958  2E0C               	decfsz	??_keypad_get_value^0,f,c
  2652   00295A  D7FC               	bra	u8487
  2653   00295C  D000               	nop2	
  2654   00295E                     
  2655                           ;ECU_layer/matrix_keypad/ecu_keymap.c: 44:             for(l_colum_counter=0 ;l_colum_co
      +                          unter <4; l_colum_counter++){
  2656   00295E  0E00               	movlw	0
  2657   002960  6E10               	movwf	keypad_get_value@l_colum_counter^0,c
  2658   002962                     l6665:
  2659   002962  500A               	movf	keypad_get_value@matrix_keypad^0,w,c
  2660   002964  2410               	addwf	keypad_get_value@l_colum_counter^0,w,c
  2661   002966  0F04               	addlw	4
  2662   002968  6E02               	movwf	GPIO_pIN_READ_LOGIC@config_pin^0,c
  2663   00296A  0E0D               	movlw	low keypad_get_value@colum_logic
  2664   00296C  6E03               	movwf	GPIO_pIN_READ_LOGIC@logic^0,c
  2665   00296E  ECE5  F014         	call	_GPIO_pIN_READ_LOGIC	;wreg free
  2666   002972                     
  2667                           ;ECU_layer/matrix_keypad/ecu_keymap.c: 46:             if(GPIO_HIGH == colum_logic){
  2668   002972  040D               	decf	keypad_get_value@colum_logic^0,w,c
  2669   002974  A4D8               	btfss	status,2,c
  2670   002976  EFBF  F014         	goto	u5961
  2671   00297A  EFC1  F014         	goto	u5960
  2672   00297E                     u5961:
  2673   00297E  EFD2  F014         	goto	l6671
  2674   002982                     u5960:
  2675   002982                     
  2676                           ;ECU_layer/matrix_keypad/ecu_keymap.c: 47:                 *value=value_ret[l_row_counte
      +                          r][l_colum_counter];
  2677   002982  500F               	movf	keypad_get_value@l_row_counter^0,w,c
  2678   002984  0D04               	mullw	4
  2679   002986  50F3               	movf	243,w,c
  2680   002988  0F01               	addlw	low _value_ret
  2681   00298A  2410               	addwf	keypad_get_value@l_colum_counter^0,w,c
  2682   00298C  6E0C               	movwf	??_keypad_get_value^0,c
  2683   00298E  C00C  FFF6         	movff	??_keypad_get_value,tblptrl
  2684   002992                     	if	1	;There is more than 1 active tblptr byte
  2685   002992  0E10               	movlw	high __smallconst
  2686   002994  6EF7               	movwf	tblptrh,c
  2687   002996                     	endif
  2688   002996                     	if	1	;Program memory is < 0x10000, tblptru is always zero
  2689   002996  6AF8               	clrf	tblptru,c
  2690   002998                     	endif
  2691   002998                     	if	0	;tblptru may be non-zero
  2692   002998                     	endif
  2693   002998  500B               	movf	keypad_get_value@value^0,w,c
  2694   00299A  6ED9               	movwf	fsr2l,c
  2695   00299C  6ADA               	clrf	fsr2h,c
  2696   00299E  0008               	tblrd		*
  2697   0029A0  CFF5 FFDF          	movff	tablat,indf2
  2698   0029A4                     l6671:
  2699                           
  2700                           ;ECU_layer/matrix_keypad/ecu_keymap.c: 49:         }
  2701   0029A4  2A10               	incf	keypad_get_value@l_colum_counter^0,f,c
  2702   0029A6  0E03               	movlw	3
  2703   0029A8  6410               	cpfsgt	keypad_get_value@l_colum_counter^0,c
  2704   0029AA  EFD9  F014         	goto	u5971
  2705   0029AE  EFDB  F014         	goto	u5970
  2706   0029B2                     u5971:
  2707   0029B2  EFB1  F014         	goto	l6665
  2708   0029B6                     u5970:
  2709   0029B6                     
  2710                           ;ECU_layer/matrix_keypad/ecu_keymap.c: 50:         }
  2711   0029B6  2A0F               	incf	keypad_get_value@l_row_counter^0,f,c
  2712   0029B8  0E03               	movlw	3
  2713   0029BA  640F               	cpfsgt	keypad_get_value@l_row_counter^0,c
  2714   0029BC  EFE2  F014         	goto	u5981
  2715   0029C0  EFE4  F014         	goto	u5980
  2716   0029C4                     u5981:
  2717   0029C4  EF8E  F014         	goto	l6643
  2718   0029C8                     u5980:
  2719   0029C8                     l281:
  2720   0029C8  0012               	return		;funcret
  2721   0029CA                     __end_of_keypad_get_value:
  2722                           	callstack 0
  2723                           
  2724 ;; *************** function _intitialized_functions *****************
  2725 ;; Defined at:
  2726 ;;		line 195 in file "main.c"
  2727 ;; Parameters:    Size  Location     Type
  2728 ;;		None
  2729 ;; Auto vars:     Size  Location     Type
  2730 ;;		None
  2731 ;; Return value:  Size  Location     Type
  2732 ;;                  1    wreg      void 
  2733 ;; Registers used:
  2734 ;;		wreg, fsr2l, fsr2h, status,2, status,0, prodl, prodh, cstack
  2735 ;; Tracked objects:
  2736 ;;		On entry : 0/0
  2737 ;;		On exit  : 0/0
  2738 ;;		Unchanged: 0/0
  2739 ;; Data sizes:     COMRAM   BANK0   BANK1   BANK2   BANK3   BANK4   BANK5   BANK6   BANK7   BANK8   BANK9  BANK10  BANK1
      +1  BANK12  BANK13  BANK14  BANK15
  2740 ;;      Params:         0       0       0       0       0       0       0       0       0       0       0       0       
      +0       0       0       0       0
  2741 ;;      Locals:         0       0       0       0       0       0       0       0       0       0       0       0       
      +0       0       0       0       0
  2742 ;;      Temps:          0       0       0       0       0       0       0       0       0       0       0       0       
      +0       0       0       0       0
  2743 ;;      Totals:         0       0       0       0       0       0       0       0       0       0       0       0       
      +0       0       0       0       0
  2744 ;;Total ram usage:        0 bytes
  2745 ;; Hardware stack levels used: 1
  2746 ;; Hardware stack levels required when called: 5
  2747 ;; This function calls:
  2748 ;;		_GPIO_pIN_INTIALIZE
  2749 ;;		_MSSP_I2C_Init
  2750 ;;		_Timer1_init
  2751 ;;		_keypad_intialize
  2752 ;;		_led_intialize
  2753 ;;		_ultrasonic_initialize
  2754 ;; This function is called by:
  2755 ;;		_main
  2756 ;; This function uses a non-reentrant model
  2757 ;;
  2758                           
  2759                           	psect	text8
  2760   0030DE                     __ptext8:
  2761                           	callstack 0
  2762   0030DE                     _intitialized_functions:
  2763                           	callstack 25
  2764   0030DE                     
  2765                           ;main.c: 196:     ret = MSSP_I2C_Init(&mssp_i2c);
  2766   0030DE  0E6B               	movlw	low _mssp_i2c
  2767   0030E0  6E45               	movwf	MSSP_I2C_Init@i2c_obj^0,c
  2768   0030E2  EC3C  F012         	call	_MSSP_I2C_Init	;wreg free
  2769   0030E6  0100               	movlb	0	; () banked
  2770   0030E8  6FFF               	movwf	_ret& (0+255),b
  2771                           
  2772                           ;main.c: 197:     Timer1_init(&Timer1_1);
  2773   0030EA  0EFA               	movlw	low _Timer1_1
  2774   0030EC  6E03               	movwf	Timer1_init@Timer1^0,c
  2775   0030EE  EC37  F015         	call	_Timer1_init	;wreg free
  2776   0030F2                     
  2777                           ;main.c: 198:     ultrasonic_initialize(&ultra_pins);
  2778   0030F2  0EBE               	movlw	low _ultra_pins
  2779   0030F4  6E0D               	movwf	ultrasonic_initialize@ultra_pins^0,c
  2780   0030F6  EC72  F019         	call	_ultrasonic_initialize	;wreg free
  2781   0030FA                     
  2782                           ;main.c: 199:     led_intialize(&led4);
  2783   0030FA  0E7D               	movlw	low _led4
  2784   0030FC  6E0D               	movwf	led_intialize@led^0,c
  2785   0030FE  EC7D  F017         	call	_led_intialize	;wreg free
  2786   003102                     
  2787                           ;main.c: 200:     led_intialize(&led6);
  2788   003102  0E7C               	movlw	low _led6
  2789   003104  6E0D               	movwf	led_intialize@led^0,c
  2790   003106  EC7D  F017         	call	_led_intialize	;wreg free
  2791   00310A                     
  2792                           ;main.c: 201:     GPIO_pIN_INTIALIZE(&buzzer);
  2793   00310A  0E7B               	movlw	low _buzzer
  2794   00310C  6E0A               	movwf	GPIO_pIN_INTIALIZE@config_pin^0,c
  2795   00310E  EC11  F018         	call	_GPIO_pIN_INTIALIZE	;wreg free
  2796   003112                     
  2797                           ;main.c: 202:     GPIO_pIN_INTIALIZE(&servo1);
  2798   003112  0E7A               	movlw	low _servo1
  2799   003114  6E0A               	movwf	GPIO_pIN_INTIALIZE@config_pin^0,c
  2800   003116  EC11  F018         	call	_GPIO_pIN_INTIALIZE	;wreg free
  2801   00311A                     
  2802                           ;main.c: 203:     keypad_intialize(&matrix_keypad);
  2803   00311A  0EB6               	movlw	low _matrix_keypad
  2804   00311C  6E0D               	movwf	keypad_intialize@matrix_keypad^0,c
  2805   00311E  ECE1  F017         	call	_keypad_intialize	;wreg free
  2806   003122  0012               	return		;funcret
  2807   003124                     __end_of_intitialized_functions:
  2808                           	callstack 0
  2809                           
  2810 ;; *************** function _ultrasonic_initialize *****************
  2811 ;; Defined at:
  2812 ;;		line 15 in file "ECU_layer/ultrasonic/hal_ultrasonic.c"
  2813 ;; Parameters:    Size  Location     Type
  2814 ;;  ultra_pins      1   12[COMRAM] PTR struct .
  2815 ;;		 -> ultra_pins(2), 
  2816 ;; Auto vars:     Size  Location     Type
  2817 ;;		None
  2818 ;; Return value:  Size  Location     Type
  2819 ;;                  1    wreg      void 
  2820 ;; Registers used:
  2821 ;;		wreg, fsr2l, fsr2h, status,2, status,0, prodl, prodh, cstack
  2822 ;; Tracked objects:
  2823 ;;		On entry : 0/0
  2824 ;;		On exit  : 0/0
  2825 ;;		Unchanged: 0/0
  2826 ;; Data sizes:     COMRAM   BANK0   BANK1   BANK2   BANK3   BANK4   BANK5   BANK6   BANK7   BANK8   BANK9  BANK10  BANK1
      +1  BANK12  BANK13  BANK14  BANK15
  2827 ;;      Params:         1       0       0       0       0       0       0       0       0       0       0       0       
      +0       0       0       0       0
  2828 ;;      Locals:         0       0       0       0       0       0       0       0       0       0       0       0       
      +0       0       0       0       0
  2829 ;;      Temps:          0       0       0       0       0       0       0       0       0       0       0       0       
      +0       0       0       0       0
  2830 ;;      Totals:         1       0       0       0       0       0       0       0       0       0       0       0       
      +0       0       0       0       0
  2831 ;;Total ram usage:        1 bytes
  2832 ;; Hardware stack levels used: 1
  2833 ;; Hardware stack levels required when called: 4
  2834 ;; This function calls:
  2835 ;;		_GPIO_pIN_INTIALIZE
  2836 ;; This function is called by:
  2837 ;;		_intitialized_functions
  2838 ;; This function uses a non-reentrant model
  2839 ;;
  2840                           
  2841                           	psect	text9
  2842   0032E4                     __ptext9:
  2843                           	callstack 0
  2844   0032E4                     _ultrasonic_initialize:
  2845                           	callstack 25
  2846   0032E4                     
  2847                           ;ECU_layer/ultrasonic/hal_ultrasonic.c: 16:     ultra_pins->ECHO_pin.logic=GPIO_OUTPUT;
  2848   0032E4  500D               	movf	ultrasonic_initialize@ultra_pins^0,w,c
  2849   0032E6  6ED9               	movwf	fsr2l,c
  2850   0032E8  6ADA               	clrf	fsr2h,c
  2851   0032EA  0E01               	movlw	1
  2852   0032EC  26D9               	addwf	fsr2l,f,c
  2853   0032EE  9EDF               	bcf	indf2,7,c
  2854                           
  2855                           ;ECU_layer/ultrasonic/hal_ultrasonic.c: 17:     ultra_pins->ECHO_pin.logic=GPIO_INPUT;
  2856   0032F0  500D               	movf	ultrasonic_initialize@ultra_pins^0,w,c
  2857   0032F2  6ED9               	movwf	fsr2l,c
  2858   0032F4  6ADA               	clrf	fsr2h,c
  2859   0032F6  0E01               	movlw	1
  2860   0032F8  26D9               	addwf	fsr2l,f,c
  2861   0032FA  8EDF               	bsf	indf2,7,c
  2862   0032FC                     
  2863                           ;ECU_layer/ultrasonic/hal_ultrasonic.c: 18:     GPIO_pIN_INTIALIZE(&(ultra_pins->ECHO_pi
      +                          n));
  2864   0032FC  280D               	incf	ultrasonic_initialize@ultra_pins^0,w,c
  2865   0032FE  6E0A               	movwf	GPIO_pIN_INTIALIZE@config_pin^0,c
  2866   003300  EC11  F018         	call	_GPIO_pIN_INTIALIZE	;wreg free
  2867   003304                     
  2868                           ;ECU_layer/ultrasonic/hal_ultrasonic.c: 19:     GPIO_pIN_INTIALIZE(&(ultra_pins->trigger
      +                          _pin));
  2869   003304  C00D  F00A         	movff	ultrasonic_initialize@ultra_pins,GPIO_pIN_INTIALIZE@config_pin
  2870   003308  EC11  F018         	call	_GPIO_pIN_INTIALIZE	;wreg free
  2871   00330C  0012               	return		;funcret
  2872   00330E                     __end_of_ultrasonic_initialize:
  2873                           	callstack 0
  2874                           
  2875 ;; *************** function _led_intialize *****************
  2876 ;; Defined at:
  2877 ;;		line 9 in file "ECU_layer/LED/ecu_led.c"
  2878 ;; Parameters:    Size  Location     Type
  2879 ;;  led             1   12[COMRAM] PTR const struct .
  2880 ;;		 -> led6(1), led4(1), 
  2881 ;; Auto vars:     Size  Location     Type
  2882 ;;  pin_config      1   14[COMRAM] struct .
  2883 ;;  ret             1    0        unsigned char 
  2884 ;; Return value:  Size  Location     Type
  2885 ;;                  1    wreg      unsigned char 
  2886 ;; Registers used:
  2887 ;;		wreg, fsr2l, fsr2h, status,2, status,0, prodl, prodh, cstack
  2888 ;; Tracked objects:
  2889 ;;		On entry : 0/0
  2890 ;;		On exit  : 0/0
  2891 ;;		Unchanged: 0/0
  2892 ;; Data sizes:     COMRAM   BANK0   BANK1   BANK2   BANK3   BANK4   BANK5   BANK6   BANK7   BANK8   BANK9  BANK10  BANK1
      +1  BANK12  BANK13  BANK14  BANK15
  2893 ;;      Params:         1       0       0       0       0       0       0       0       0       0       0       0       
      +0       0       0       0       0
  2894 ;;      Locals:         1       0       0       0       0       0       0       0       0       0       0       0       
      +0       0       0       0       0
  2895 ;;      Temps:          1       0       0       0       0       0       0       0       0       0       0       0       
      +0       0       0       0       0
  2896 ;;      Totals:         3       0       0       0       0       0       0       0       0       0       0       0       
      +0       0       0       0       0
  2897 ;;Total ram usage:        3 bytes
  2898 ;; Hardware stack levels used: 1
  2899 ;; Hardware stack levels required when called: 4
  2900 ;; This function calls:
  2901 ;;		_GPIO_pIN_INTIALIZE
  2902 ;; This function is called by:
  2903 ;;		_intitialized_functions
  2904 ;; This function uses a non-reentrant model
  2905 ;;
  2906                           
  2907                           	psect	text10
  2908   002EFA                     __ptext10:
  2909                           	callstack 0
  2910   002EFA                     _led_intialize:
  2911                           	callstack 25
  2912   002EFA                     
  2913                           ;ECU_layer/LED/ecu_led.c: 12:     pin_config_t pin_config ={.port = led->port_name ,
  2914   002EFA  C05D  F00F         	movff	led_intialize@F3060,led_intialize@pin_config
  2915   002EFE  500D               	movf	led_intialize@led^0,w,c
  2916   002F00  6ED9               	movwf	fsr2l,c
  2917   002F02  6ADA               	clrf	fsr2h,c
  2918   002F04  50DF               	movf	223,w,c
  2919   002F06  0B0F               	andlw	15
  2920   002F08  6E0E               	movwf	??_led_intialize^0,c
  2921   002F0A  500F               	movf	led_intialize@pin_config^0,w,c
  2922   002F0C  180E               	xorwf	??_led_intialize^0,w,c
  2923   002F0E  0BF8               	andlw	-8
  2924   002F10  180E               	xorwf	??_led_intialize^0,w,c
  2925   002F12  6E0F               	movwf	led_intialize@pin_config^0,c
  2926   002F14  500D               	movf	led_intialize@led^0,w,c
  2927   002F16  6ED9               	movwf	fsr2l,c
  2928   002F18  6ADA               	clrf	fsr2h,c
  2929   002F1A  38DF               	swapf	223,w,c
  2930   002F1C  0B07               	andlw	7
  2931   002F1E  6E0E               	movwf	??_led_intialize^0,c
  2932   002F20  460E               	rlncf	??_led_intialize^0,f,c
  2933   002F22  460E               	rlncf	??_led_intialize^0,f,c
  2934   002F24  460E               	rlncf	??_led_intialize^0,f,c
  2935   002F26  500F               	movf	led_intialize@pin_config^0,w,c
  2936   002F28  180E               	xorwf	??_led_intialize^0,w,c
  2937   002F2A  0BC7               	andlw	-57
  2938   002F2C  180E               	xorwf	??_led_intialize^0,w,c
  2939   002F2E  6E0F               	movwf	led_intialize@pin_config^0,c
  2940   002F30  9C0F               	bcf	led_intialize@pin_config^0,6,c
  2941   002F32  500D               	movf	led_intialize@led^0,w,c
  2942   002F34  6ED9               	movwf	fsr2l,c
  2943   002F36  6ADA               	clrf	fsr2h,c
  2944   002F38  AEDF               	btfss	indf2,7,c
  2945   002F3A  D002               	bra	u5555
  2946   002F3C  8E0F               	bsf	led_intialize@pin_config^0,7,c
  2947   002F3E  D001               	bra	u5557
  2948   002F40                     u5555:
  2949   002F40  9E0F               	bcf	led_intialize@pin_config^0,7,c
  2950   002F42                     u5557:
  2951   002F42                     
  2952                           ;ECU_layer/LED/ecu_led.c: 16:     if(((void*)0) == led)
  2953   002F42  500D               	movf	led_intialize@led^0,w,c
  2954   002F44  A4D8               	btfss	status,2,c
  2955   002F46  EFA7  F017         	goto	u5561
  2956   002F4A  EFA9  F017         	goto	u5560
  2957   002F4E                     u5561:
  2958   002F4E  EFAB  F017         	goto	l6325
  2959   002F52                     u5560:
  2960   002F52                     
  2961                           ;ECU_layer/LED/ecu_led.c: 19:     }
  2962   002F52  EFAF  F017         	goto	l225
  2963   002F56                     l6325:
  2964   002F56  0E0F               	movlw	low led_intialize@pin_config
  2965   002F58  6E0A               	movwf	GPIO_pIN_INTIALIZE@config_pin^0,c
  2966   002F5A  EC11  F018         	call	_GPIO_pIN_INTIALIZE	;wreg free
  2967   002F5E                     l225:
  2968   002F5E  0012               	return		;funcret
  2969   002F60                     __end_of_led_intialize:
  2970                           	callstack 0
  2971                           
  2972 ;; *************** function _keypad_intialize *****************
  2973 ;; Defined at:
  2974 ;;		line 15 in file "ECU_layer/matrix_keypad/ecu_keymap.c"
  2975 ;; Parameters:    Size  Location     Type
  2976 ;;  matrix_keypa    1   12[COMRAM] PTR const struct .
  2977 ;;		 -> matrix_keypad(8), 
  2978 ;; Auto vars:     Size  Location     Type
  2979 ;;  l_colum_coun    1   14[COMRAM] unsigned char 
  2980 ;;  l_row_counte    1   13[COMRAM] unsigned char 
  2981 ;;  ret             1    0        unsigned char 
  2982 ;; Return value:  Size  Location     Type
  2983 ;;                  1    wreg      unsigned char 
  2984 ;; Registers used:
  2985 ;;		wreg, fsr2l, fsr2h, status,2, status,0, prodl, prodh, cstack
  2986 ;; Tracked objects:
  2987 ;;		On entry : 0/0
  2988 ;;		On exit  : 0/0
  2989 ;;		Unchanged: 0/0
  2990 ;; Data sizes:     COMRAM   BANK0   BANK1   BANK2   BANK3   BANK4   BANK5   BANK6   BANK7   BANK8   BANK9  BANK10  BANK1
      +1  BANK12  BANK13  BANK14  BANK15
  2991 ;;      Params:         1       0       0       0       0       0       0       0       0       0       0       0       
      +0       0       0       0       0
  2992 ;;      Locals:         2       0       0       0       0       0       0       0       0       0       0       0       
      +0       0       0       0       0
  2993 ;;      Temps:          0       0       0       0       0       0       0       0       0       0       0       0       
      +0       0       0       0       0
  2994 ;;      Totals:         3       0       0       0       0       0       0       0       0       0       0       0       
      +0       0       0       0       0
  2995 ;;Total ram usage:        3 bytes
  2996 ;; Hardware stack levels used: 1
  2997 ;; Hardware stack levels required when called: 4
  2998 ;; This function calls:
  2999 ;;		_GPIO_pIN_DIRECTION_INTIALIZE
  3000 ;;		_GPIO_pIN_INTIALIZE
  3001 ;; This function is called by:
  3002 ;;		_intitialized_functions
  3003 ;; This function uses a non-reentrant model
  3004 ;;
  3005                           
  3006                           	psect	text11
  3007   002FC2                     __ptext11:
  3008                           	callstack 0
  3009   002FC2                     _keypad_intialize:
  3010                           	callstack 25
  3011   002FC2                     
  3012                           ;ECU_layer/matrix_keypad/ecu_keymap.c: 17:     uint8 l_row_counter =0 ,l_colum_counter=0
      +                          ;
  3013   002FC2  0E00               	movlw	0
  3014   002FC4  6E0E               	movwf	keypad_intialize@l_row_counter^0,c
  3015   002FC6  0E00               	movlw	0
  3016   002FC8  6E0F               	movwf	keypad_intialize@l_colum_counter^0,c
  3017                           
  3018                           ;ECU_layer/matrix_keypad/ecu_keymap.c: 18:     if (((void*)0) == matrix_keypad){
  3019   002FCA  500D               	movf	keypad_intialize@matrix_keypad^0,w,c
  3020   002FCC  A4D8               	btfss	status,2,c
  3021   002FCE  EFEB  F017         	goto	u5571
  3022   002FD2  EFED  F017         	goto	u5570
  3023   002FD6                     u5571:
  3024   002FD6  EFEF  F017         	goto	l6333
  3025   002FDA                     u5570:
  3026   002FDA                     
  3027                           ;ECU_layer/matrix_keypad/ecu_keymap.c: 20:     }
  3028   002FDA  EF10  F018         	goto	l267
  3029   002FDE                     l6333:
  3030                           
  3031                           ;ECU_layer/matrix_keypad/ecu_keymap.c: 22:         for(l_row_counter=0 ;l_row_counter <4
      +                          ; l_row_counter++){
  3032   002FDE  0E00               	movlw	0
  3033   002FE0  6E0E               	movwf	keypad_intialize@l_row_counter^0,c
  3034   002FE2                     l6339:
  3035   002FE2  500D               	movf	keypad_intialize@matrix_keypad^0,w,c
  3036   002FE4  240E               	addwf	keypad_intialize@l_row_counter^0,w,c
  3037   002FE6  6E0A               	movwf	GPIO_pIN_INTIALIZE@config_pin^0,c
  3038   002FE8  EC11  F018         	call	_GPIO_pIN_INTIALIZE	;wreg free
  3039   002FEC                     
  3040                           ;ECU_layer/matrix_keypad/ecu_keymap.c: 24:         }
  3041   002FEC  2A0E               	incf	keypad_intialize@l_row_counter^0,f,c
  3042   002FEE  0E03               	movlw	3
  3043   002FF0  640E               	cpfsgt	keypad_intialize@l_row_counter^0,c
  3044   002FF2  EFFD  F017         	goto	u5581
  3045   002FF6  EFFF  F017         	goto	u5580
  3046   002FFA                     u5581:
  3047   002FFA  EFF1  F017         	goto	l6339
  3048   002FFE                     u5580:
  3049   002FFE                     
  3050                           ;ECU_layer/matrix_keypad/ecu_keymap.c: 25:         for(l_colum_counter=0 ;l_colum_counte
      +                          r <4; l_colum_counter++){
  3051   002FFE  0E00               	movlw	0
  3052   003000  6E0F               	movwf	keypad_intialize@l_colum_counter^0,c
  3053   003002                     l6351:
  3054   003002  500D               	movf	keypad_intialize@matrix_keypad^0,w,c
  3055   003004  240F               	addwf	keypad_intialize@l_colum_counter^0,w,c
  3056   003006  0F04               	addlw	4
  3057   003008  6E02               	movwf	GPIO_pIN_DIRECTION_INTIALIZE@config_pin^0,c
  3058   00300A  ECD4  F012         	call	_GPIO_pIN_DIRECTION_INTIALIZE	;wreg free
  3059   00300E                     
  3060                           ;ECU_layer/matrix_keypad/ecu_keymap.c: 27:         }
  3061   00300E  2A0F               	incf	keypad_intialize@l_colum_counter^0,f,c
  3062   003010  0E03               	movlw	3
  3063   003012  640F               	cpfsgt	keypad_intialize@l_colum_counter^0,c
  3064   003014  EF0E  F018         	goto	u5591
  3065   003018  EF10  F018         	goto	u5590
  3066   00301C                     u5591:
  3067   00301C  EF01  F018         	goto	l6351
  3068   003020                     u5590:
  3069   003020                     l267:
  3070   003020  0012               	return		;funcret
  3071   003022                     __end_of_keypad_intialize:
  3072                           	callstack 0
  3073                           
  3074 ;; *************** function _GPIO_pIN_INTIALIZE *****************
  3075 ;; Defined at:
  3076 ;;		line 72 in file "MKAL_layer/gpio/pro_gpio.c"
  3077 ;; Parameters:    Size  Location     Type
  3078 ;;  config_pin      1    9[COMRAM] PTR const struct .
  3079 ;;		 -> buzzer(1), servo1(1), ultra_pins$ECHO_pin(1), ultra_pins$trigger_pin(1), 
  3080 ;;		 -> ultra_pins(2), matrix_keypad$keymap_rows_pins(4), matrix_keypad(8), relay_intialize@pin_config(1), 
  3081 ;;		 -> led_intialize@pin_config(1), 
  3082 ;; Auto vars:     Size  Location     Type
  3083 ;;  ret             1   11[COMRAM] unsigned char 
  3084 ;; Return value:  Size  Location     Type
  3085 ;;                  1    wreg      unsigned char 
  3086 ;; Registers used:
  3087 ;;		wreg, fsr2l, fsr2h, status,2, status,0, prodl, prodh, cstack
  3088 ;; Tracked objects:
  3089 ;;		On entry : 0/0
  3090 ;;		On exit  : 0/0
  3091 ;;		Unchanged: 0/0
  3092 ;; Data sizes:     COMRAM   BANK0   BANK1   BANK2   BANK3   BANK4   BANK5   BANK6   BANK7   BANK8   BANK9  BANK10  BANK1
      +1  BANK12  BANK13  BANK14  BANK15
  3093 ;;      Params:         1       0       0       0       0       0       0       0       0       0       0       0       
      +0       0       0       0       0
  3094 ;;      Locals:         1       0       0       0       0       0       0       0       0       0       0       0       
      +0       0       0       0       0
  3095 ;;      Temps:          1       0       0       0       0       0       0       0       0       0       0       0       
      +0       0       0       0       0
  3096 ;;      Totals:         3       0       0       0       0       0       0       0       0       0       0       0       
      +0       0       0       0       0
  3097 ;;Total ram usage:        3 bytes
  3098 ;; Hardware stack levels used: 1
  3099 ;; Hardware stack levels required when called: 3
  3100 ;; This function calls:
  3101 ;;		_GPIO_pIN_DIRECTION_INTIALIZE
  3102 ;;		_GPIO_pIN_WRITE_LOGIC
  3103 ;; This function is called by:
  3104 ;;		_led_intialize
  3105 ;;		_keypad_intialize
  3106 ;;		_ultrasonic_initialize
  3107 ;;		_intitialized_functions
  3108 ;;		_lcd_4bit_intialize
  3109 ;;		_lcd_8bit_intialize
  3110 ;;		_motor_intialize
  3111 ;;		_relay_intialize
  3112 ;;		_ccp1_init
  3113 ;;		_ccp2_init
  3114 ;;		_interrupt_intx_pin_inti
  3115 ;; This function uses a non-reentrant model
  3116 ;;
  3117                           
  3118                           	psect	text12
  3119   003022                     __ptext12:
  3120                           	callstack 0
  3121   003022                     _GPIO_pIN_INTIALIZE:
  3122                           	callstack 25
  3123   003022                     
  3124                           ;MKAL_layer/gpio/pro_gpio.c: 75:     if ((((void*)0) == config_pin) || (config_pin->pin 
      +                          > 8 -1)){
  3125   003022  500A               	movf	GPIO_pIN_INTIALIZE@config_pin^0,w,c
  3126   003024  B4D8               	btfsc	status,2,c
  3127   003026  EF17  F018         	goto	u5251
  3128   00302A  EF19  F018         	goto	u5250
  3129   00302E                     u5251:
  3130   00302E  EF29  F018         	goto	l6119
  3131   003032                     u5250:
  3132   003032  500A               	movf	GPIO_pIN_INTIALIZE@config_pin^0,w,c
  3133   003034  6ED9               	movwf	fsr2l,c
  3134   003036  6ADA               	clrf	fsr2h,c
  3135   003038  30DF               	rrcf	223,w,c
  3136   00303A  32E8               	rrcf	wreg,f,c
  3137   00303C  32E8               	rrcf	wreg,f,c
  3138   00303E  0B07               	andlw	7
  3139   003040  6E0B               	movwf	??_GPIO_pIN_INTIALIZE^0,c
  3140   003042  0E07               	movlw	7
  3141   003044  640B               	cpfsgt	??_GPIO_pIN_INTIALIZE^0,c
  3142   003046  EF27  F018         	goto	u5261
  3143   00304A  EF29  F018         	goto	u5260
  3144   00304E                     u5261:
  3145   00304E  EF2D  F018         	goto	l6121
  3146   003052                     u5260:
  3147   003052                     l6119:
  3148                           
  3149                           ;MKAL_layer/gpio/pro_gpio.c: 76:         ret =(Std_ReturnType)0x00;
  3150   003052  0E00               	movlw	0
  3151   003054  6E0C               	movwf	GPIO_pIN_INTIALIZE@ret^0,c
  3152                           
  3153                           ;MKAL_layer/gpio/pro_gpio.c: 77:     }
  3154   003056  EF3E  F018         	goto	l6123
  3155   00305A                     l6121:
  3156                           
  3157                           ;MKAL_layer/gpio/pro_gpio.c: 79:         ret =GPIO_pIN_DIRECTION_INTIALIZE(config_pin);
  3158   00305A  C00A  F002         	movff	GPIO_pIN_INTIALIZE@config_pin,GPIO_pIN_DIRECTION_INTIALIZE@config_pin
  3159   00305E  ECD4  F012         	call	_GPIO_pIN_DIRECTION_INTIALIZE	;wreg free
  3160   003062  6E0C               	movwf	GPIO_pIN_INTIALIZE@ret^0,c
  3161                           
  3162                           ;MKAL_layer/gpio/pro_gpio.c: 80:         ret =GPIO_pIN_WRITE_LOGIC(config_pin,config_pin
      +                          ->logic);
  3163   003064  C00A  F002         	movff	GPIO_pIN_INTIALIZE@config_pin,GPIO_pIN_WRITE_LOGIC@config_pin
  3164   003068  500A               	movf	GPIO_pIN_INTIALIZE@config_pin^0,w,c
  3165   00306A  6ED9               	movwf	fsr2l,c
  3166   00306C  6ADA               	clrf	fsr2h,c
  3167   00306E  0E00               	movlw	0
  3168   003070  BEDF               	btfsc	indf2,7,c
  3169   003072  0E01               	movlw	1
  3170   003074  6E03               	movwf	GPIO_pIN_WRITE_LOGIC@logic^0,c
  3171   003076  EC67  F013         	call	_GPIO_pIN_WRITE_LOGIC	;wreg free
  3172   00307A  6E0C               	movwf	GPIO_pIN_INTIALIZE@ret^0,c
  3173   00307C                     l6123:
  3174                           
  3175                           ;MKAL_layer/gpio/pro_gpio.c: 82:     return ret;
  3176   00307C  500C               	movf	GPIO_pIN_INTIALIZE@ret^0,w,c
  3177   00307E  0012               	return		;funcret
  3178   003080                     __end_of_GPIO_pIN_INTIALIZE:
  3179                           	callstack 0
  3180                           
  3181 ;; *************** function _GPIO_pIN_DIRECTION_INTIALIZE *****************
  3182 ;; Defined at:
  3183 ;;		line 14 in file "MKAL_layer/gpio/pro_gpio.c"
  3184 ;; Parameters:    Size  Location     Type
  3185 ;;  config_pin      1    1[COMRAM] PTR const struct .
  3186 ;;		 -> buzzer(1), servo1(1), ultra_pins$ECHO_pin(1), ultra_pins$trigger_pin(1), 
  3187 ;;		 -> ultra_pins(2), matrix_keypad$keymap_colums_pins(4), matrix_keypad$keymap_rows_pins(4), matrix_keypad(8), 
  3188 ;;		 -> relay_intialize@pin_config(1), led_intialize@pin_config(1), 
  3189 ;; Auto vars:     Size  Location     Type
  3190 ;;  ret             1    7[COMRAM] unsigned char 
  3191 ;; Return value:  Size  Location     Type
  3192 ;;                  1    wreg      unsigned char 
  3193 ;; Registers used:
  3194 ;;		wreg, fsr2l, fsr2h, status,2, status,0, prodl, prodh
  3195 ;; Tracked objects:
  3196 ;;		On entry : 0/0
  3197 ;;		On exit  : 0/0
  3198 ;;		Unchanged: 0/0
  3199 ;; Data sizes:     COMRAM   BANK0   BANK1   BANK2   BANK3   BANK4   BANK5   BANK6   BANK7   BANK8   BANK9  BANK10  BANK1
      +1  BANK12  BANK13  BANK14  BANK15
  3200 ;;      Params:         1       0       0       0       0       0       0       0       0       0       0       0       
      +0       0       0       0       0
  3201 ;;      Locals:         1       0       0       0       0       0       0       0       0       0       0       0       
      +0       0       0       0       0
  3202 ;;      Temps:          5       0       0       0       0       0       0       0       0       0       0       0       
      +0       0       0       0       0
  3203 ;;      Totals:         7       0       0       0       0       0       0       0       0       0       0       0       
      +0       0       0       0       0
  3204 ;;Total ram usage:        7 bytes
  3205 ;; Hardware stack levels used: 1
  3206 ;; Hardware stack levels required when called: 2
  3207 ;; This function calls:
  3208 ;;		Nothing
  3209 ;; This function is called by:
  3210 ;;		_keypad_intialize
  3211 ;;		_GPIO_pIN_INTIALIZE
  3212 ;;		_button_intialize
  3213 ;;		_Interrupt_Pbx_Inti
  3214 ;; This function uses a non-reentrant model
  3215 ;;
  3216                           
  3217                           	psect	text13
  3218   0025A8                     __ptext13:
  3219                           	callstack 0
  3220   0025A8                     _GPIO_pIN_DIRECTION_INTIALIZE:
  3221                           	callstack 25
  3222   0025A8                     
  3223                           ;MKAL_layer/gpio/pro_gpio.c: 14: Std_ReturnType GPIO_pIN_DIRECTION_INTIALIZE(const pin_c
      +                          onfig_t *config_pin);MKAL_layer/gpio/pro_gpio.c: 15: {;MKAL_layer/gpio/pro_gpio.c: 16:  
      +                             Std_ReturnType ret =(Std_ReturnType)0x01;
  3224   0025A8  0E01               	movlw	1
  3225   0025AA  6E08               	movwf	GPIO_pIN_DIRECTION_INTIALIZE@ret^0,c
  3226                           
  3227                           ;MKAL_layer/gpio/pro_gpio.c: 17:     if ((((void*)0) == config_pin) || (config_pin->pin 
      +                          > 8 -1)){
  3228   0025AC  5002               	movf	GPIO_pIN_DIRECTION_INTIALIZE@config_pin^0,w,c
  3229   0025AE  B4D8               	btfsc	status,2,c
  3230   0025B0  EFDC  F012         	goto	u4321
  3231   0025B4  EFDE  F012         	goto	u4320
  3232   0025B8                     u4321:
  3233   0025B8  EFEE  F012         	goto	l5631
  3234   0025BC                     u4320:
  3235   0025BC  5002               	movf	GPIO_pIN_DIRECTION_INTIALIZE@config_pin^0,w,c
  3236   0025BE  6ED9               	movwf	fsr2l,c
  3237   0025C0  6ADA               	clrf	fsr2h,c
  3238   0025C2  30DF               	rrcf	223,w,c
  3239   0025C4  32E8               	rrcf	wreg,f,c
  3240   0025C6  32E8               	rrcf	wreg,f,c
  3241   0025C8  0B07               	andlw	7
  3242   0025CA  6E03               	movwf	??_GPIO_pIN_DIRECTION_INTIALIZE^0,c
  3243   0025CC  0E07               	movlw	7
  3244   0025CE  6403               	cpfsgt	??_GPIO_pIN_DIRECTION_INTIALIZE^0,c
  3245   0025D0  EFEC  F012         	goto	u4331
  3246   0025D4  EFEE  F012         	goto	u4330
  3247   0025D8                     u4331:
  3248   0025D8  EF45  F013         	goto	l5639
  3249   0025DC                     u4330:
  3250   0025DC                     l5631:
  3251                           
  3252                           ;MKAL_layer/gpio/pro_gpio.c: 18:         ret =(Std_ReturnType)0x00;
  3253   0025DC  0E00               	movlw	0
  3254   0025DE  6E08               	movwf	GPIO_pIN_DIRECTION_INTIALIZE@ret^0,c
  3255                           
  3256                           ;MKAL_layer/gpio/pro_gpio.c: 19:     }
  3257   0025E0  EF65  F013         	goto	l5641
  3258   0025E4                     l5633:
  3259                           
  3260                           ;MKAL_layer/gpio/pro_gpio.c: 23:                 (*tris_regisrers[config_pin->port] &= ~
      +                          ((uint8)1 << config_pin->pin));
  3261   0025E4  5002               	movf	GPIO_pIN_DIRECTION_INTIALIZE@config_pin^0,w,c
  3262   0025E6  6ED9               	movwf	fsr2l,c
  3263   0025E8  6ADA               	clrf	fsr2h,c
  3264   0025EA  30DF               	rrcf	223,w,c
  3265   0025EC  32E8               	rrcf	wreg,f,c
  3266   0025EE  32E8               	rrcf	wreg,f,c
  3267   0025F0  0B07               	andlw	7
  3268   0025F2  6E03               	movwf	??_GPIO_pIN_DIRECTION_INTIALIZE^0,c
  3269   0025F4  0E01               	movlw	1
  3270   0025F6  6E04               	movwf	(??_GPIO_pIN_DIRECTION_INTIALIZE+1)^0,c
  3271   0025F8  2A03               	incf	??_GPIO_pIN_DIRECTION_INTIALIZE^0,f,c
  3272   0025FA  EF01  F013         	goto	u4344
  3273   0025FE                     u4345:
  3274   0025FE  90D8               	bcf	status,0,c
  3275   002600  3604               	rlcf	(??_GPIO_pIN_DIRECTION_INTIALIZE+1)^0,f,c
  3276   002602                     u4344:
  3277   002602  2E03               	decfsz	??_GPIO_pIN_DIRECTION_INTIALIZE^0,f,c
  3278   002604  EFFF  F012         	goto	u4345
  3279   002608  5004               	movf	(??_GPIO_pIN_DIRECTION_INTIALIZE+1)^0,w,c
  3280   00260A  0AFF               	xorlw	255
  3281   00260C  6E05               	movwf	(??_GPIO_pIN_DIRECTION_INTIALIZE+2)^0,c
  3282   00260E  5002               	movf	GPIO_pIN_DIRECTION_INTIALIZE@config_pin^0,w,c
  3283   002610  6ED9               	movwf	fsr2l,c
  3284   002612  6ADA               	clrf	fsr2h,c
  3285   002614  50DF               	movf	223,w,c
  3286   002616  0B07               	andlw	7
  3287   002618  0D02               	mullw	2
  3288   00261A  50F3               	movf	243,w,c
  3289   00261C  0F9E               	addlw	low _tris_regisrers
  3290   00261E  6ED9               	movwf	fsr2l,c
  3291   002620  6ADA               	clrf	fsr2h,c
  3292   002622  CFDE F006          	movff	postinc2,??_GPIO_pIN_DIRECTION_INTIALIZE+3
  3293   002626  CFDD F007          	movff	postdec2,??_GPIO_pIN_DIRECTION_INTIALIZE+4
  3294   00262A  C006  FFD9         	movff	??_GPIO_pIN_DIRECTION_INTIALIZE+3,fsr2l
  3295   00262E  C007  FFDA         	movff	??_GPIO_pIN_DIRECTION_INTIALIZE+4,fsr2h
  3296   002632  5005               	movf	(??_GPIO_pIN_DIRECTION_INTIALIZE+2)^0,w,c
  3297   002634  16DF               	andwf	indf2,f,c
  3298                           
  3299                           ;MKAL_layer/gpio/pro_gpio.c: 24:                 break;
  3300   002636  EF65  F013         	goto	l5641
  3301   00263A                     l5635:
  3302                           
  3303                           ;MKAL_layer/gpio/pro_gpio.c: 26:                 (*tris_regisrers[config_pin->port] |= (
      +                          (uint8)1 << config_pin->pin));
  3304   00263A  5002               	movf	GPIO_pIN_DIRECTION_INTIALIZE@config_pin^0,w,c
  3305   00263C  6ED9               	movwf	fsr2l,c
  3306   00263E  6ADA               	clrf	fsr2h,c
  3307   002640  30DF               	rrcf	223,w,c
  3308   002642  32E8               	rrcf	wreg,f,c
  3309   002644  32E8               	rrcf	wreg,f,c
  3310   002646  0B07               	andlw	7
  3311   002648  6E03               	movwf	??_GPIO_pIN_DIRECTION_INTIALIZE^0,c
  3312   00264A  0E01               	movlw	1
  3313   00264C  6E04               	movwf	(??_GPIO_pIN_DIRECTION_INTIALIZE+1)^0,c
  3314   00264E  2A03               	incf	??_GPIO_pIN_DIRECTION_INTIALIZE^0,f,c
  3315   002650  EF2C  F013         	goto	u4354
  3316   002654                     u4355:
  3317   002654  90D8               	bcf	status,0,c
  3318   002656  3604               	rlcf	(??_GPIO_pIN_DIRECTION_INTIALIZE+1)^0,f,c
  3319   002658                     u4354:
  3320   002658  2E03               	decfsz	??_GPIO_pIN_DIRECTION_INTIALIZE^0,f,c
  3321   00265A  EF2A  F013         	goto	u4355
  3322   00265E  5002               	movf	GPIO_pIN_DIRECTION_INTIALIZE@config_pin^0,w,c
  3323   002660  6ED9               	movwf	fsr2l,c
  3324   002662  6ADA               	clrf	fsr2h,c
  3325   002664  50DF               	movf	223,w,c
  3326   002666  0B07               	andlw	7
  3327   002668  0D02               	mullw	2
  3328   00266A  50F3               	movf	243,w,c
  3329   00266C  0F9E               	addlw	low _tris_regisrers
  3330   00266E  6ED9               	movwf	fsr2l,c
  3331   002670  6ADA               	clrf	fsr2h,c
  3332   002672  CFDE F005          	movff	postinc2,??_GPIO_pIN_DIRECTION_INTIALIZE+2
  3333   002676  CFDD F006          	movff	postdec2,??_GPIO_pIN_DIRECTION_INTIALIZE+3
  3334   00267A  C005  FFD9         	movff	??_GPIO_pIN_DIRECTION_INTIALIZE+2,fsr2l
  3335   00267E  C006  FFDA         	movff	??_GPIO_pIN_DIRECTION_INTIALIZE+3,fsr2h
  3336   002682  5004               	movf	(??_GPIO_pIN_DIRECTION_INTIALIZE+1)^0,w,c
  3337   002684  12DF               	iorwf	indf2,f,c
  3338                           
  3339                           ;MKAL_layer/gpio/pro_gpio.c: 27:                 break;
  3340   002686  EF65  F013         	goto	l5641
  3341   00268A                     l5639:
  3342   00268A  5002               	movf	GPIO_pIN_DIRECTION_INTIALIZE@config_pin^0,w,c
  3343   00268C  6ED9               	movwf	fsr2l,c
  3344   00268E  6ADA               	clrf	fsr2h,c
  3345   002690  BCDF               	btfsc	indf2,6,c
  3346   002692  EF4D  F013         	goto	u4361
  3347   002696  EF50  F013         	goto	u4360
  3348   00269A                     u4361:
  3349   00269A  0E01               	movlw	1
  3350   00269C  EF51  F013         	goto	u4370
  3351   0026A0                     u4360:
  3352   0026A0  0E00               	movlw	0
  3353   0026A2                     u4370:
  3354   0026A2  6E03               	movwf	??_GPIO_pIN_DIRECTION_INTIALIZE^0,c
  3355   0026A4  6A04               	clrf	(??_GPIO_pIN_DIRECTION_INTIALIZE+1)^0,c
  3356                           
  3357                           ; Switch on 2 bytes has been partitioned into a top level switch of size 1, and 1 sub-sw
      +                          itches
  3358                           ; Switch size 1, requested type "simple"
  3359                           ; Number of cases is 1, Range of values is 0 to 0
  3360                           ; switch strategies available:
  3361                           ; Name         Instructions Cycles
  3362                           ; simple_byte            4     3 (average)
  3363                           ;	Chosen strategy is simple_byte
  3364   0026A6  5004               	movf	(??_GPIO_pIN_DIRECTION_INTIALIZE+1)^0,w,c
  3365   0026A8  0A00               	xorlw	0	; case 0
  3366   0026AA  B4D8               	btfsc	status,2,c
  3367   0026AC  EF5A  F013         	goto	l8435
  3368   0026B0  EFEE  F012         	goto	l5631
  3369   0026B4                     l8435:
  3370                           
  3371                           ; Switch size 1, requested type "simple"
  3372                           ; Number of cases is 2, Range of values is 0 to 1
  3373                           ; switch strategies available:
  3374                           ; Name         Instructions Cycles
  3375                           ; simple_byte            7     4 (average)
  3376                           ;	Chosen strategy is simple_byte
  3377   0026B4  5003               	movf	??_GPIO_pIN_DIRECTION_INTIALIZE^0,w,c
  3378   0026B6  0A00               	xorlw	0	; case 0
  3379   0026B8  B4D8               	btfsc	status,2,c
  3380   0026BA  EFF2  F012         	goto	l5633
  3381   0026BE  0A01               	xorlw	1	; case 1
  3382   0026C0  B4D8               	btfsc	status,2,c
  3383   0026C2  EF1D  F013         	goto	l5635
  3384   0026C6  EFEE  F012         	goto	l5631
  3385   0026CA                     l5641:
  3386                           
  3387                           ;MKAL_layer/gpio/pro_gpio.c: 31:     return ret;
  3388   0026CA  5008               	movf	GPIO_pIN_DIRECTION_INTIALIZE@ret^0,w,c
  3389   0026CC  0012               	return		;funcret
  3390   0026CE                     __end_of_GPIO_pIN_DIRECTION_INTIALIZE:
  3391                           	callstack 0
  3392                           
  3393 ;; *************** function _Timer1_init *****************
  3394 ;; Defined at:
  3395 ;;		line 17 in file "MKAL_layer/timer1/hal_timer1.c"
  3396 ;; Parameters:    Size  Location     Type
  3397 ;;  Timer1          1    2[COMRAM] PTR const struct .
  3398 ;;		 -> Timer1_1(5), 
  3399 ;; Auto vars:     Size  Location     Type
  3400 ;;  ret             1    0        unsigned char 
  3401 ;; Return value:  Size  Location     Type
  3402 ;;                  1    wreg      unsigned char 
  3403 ;; Registers used:
  3404 ;;		wreg, fsr2l, fsr2h, status,2, status,0, cstack
  3405 ;; Tracked objects:
  3406 ;;		On entry : 0/0
  3407 ;;		On exit  : 0/0
  3408 ;;		Unchanged: 0/0
  3409 ;; Data sizes:     COMRAM   BANK0   BANK1   BANK2   BANK3   BANK4   BANK5   BANK6   BANK7   BANK8   BANK9  BANK10  BANK1
      +1  BANK12  BANK13  BANK14  BANK15
  3410 ;;      Params:         1       0       0       0       0       0       0       0       0       0       0       0       
      +0       0       0       0       0
  3411 ;;      Locals:         0       0       0       0       0       0       0       0       0       0       0       0       
      +0       0       0       0       0
  3412 ;;      Temps:          2       0       0       0       0       0       0       0       0       0       0       0       
      +0       0       0       0       0
  3413 ;;      Totals:         3       0       0       0       0       0       0       0       0       0       0       0       
      +0       0       0       0       0
  3414 ;;Total ram usage:        3 bytes
  3415 ;; Hardware stack levels used: 1
  3416 ;; Hardware stack levels required when called: 3
  3417 ;; This function calls:
  3418 ;;		_timer1_mode_cfg
  3419 ;;		_timer1_osc_cfg
  3420 ;;		_timer1_reg_bit_cfg
  3421 ;; This function is called by:
  3422 ;;		_intitialized_functions
  3423 ;; This function uses a non-reentrant model
  3424 ;;
  3425                           
  3426                           	psect	text14
  3427   002A6E                     __ptext14:
  3428                           	callstack 0
  3429   002A6E                     _Timer1_init:
  3430                           	callstack 26
  3431   002A6E                     
  3432                           ;MKAL_layer/timer1/hal_timer1.c: 19:     if (((void*)0) == Timer1){
  3433   002A6E  5003               	movf	Timer1_init@Timer1^0,w,c
  3434   002A70  A4D8               	btfss	status,2,c
  3435   002A72  EF3D  F015         	goto	u5801
  3436   002A76  EF3F  F015         	goto	u5800
  3437   002A7A                     u5801:
  3438   002A7A  EF41  F015         	goto	l1325
  3439   002A7E                     u5800:
  3440   002A7E                     
  3441                           ;MKAL_layer/timer1/hal_timer1.c: 21:     }
  3442   002A7E  EF86  F015         	goto	l1327
  3443   002A82                     l1325:
  3444                           
  3445                           ;MKAL_layer/timer1/hal_timer1.c: 23:     {;MKAL_layer/timer1/hal_timer1.c: 25:         (
      +                          T1CONbits.TMR1ON =0);
  3446   002A82  90CD               	bcf	205,0,c	;volatile
  3447   002A84                     
  3448                           ;MKAL_layer/timer1/hal_timer1.c: 27:         (T1CONbits.T1CKPS = Timer1->timer1_prescale
      +                          r_cfg);;
  3449   002A84  5003               	movf	Timer1_init@Timer1^0,w,c
  3450   002A86  6ED9               	movwf	fsr2l,c
  3451   002A88  6ADA               	clrf	fsr2h,c
  3452   002A8A  0E04               	movlw	4
  3453   002A8C  26D9               	addwf	fsr2l,f,c
  3454   002A8E  50DF               	movf	223,w,c
  3455   002A90  0B03               	andlw	3
  3456   002A92  6E04               	movwf	??_Timer1_init^0,c
  3457   002A94  3A04               	swapf	??_Timer1_init^0,f,c
  3458   002A96  50CD               	movf	205,w,c	;volatile
  3459   002A98  1804               	xorwf	??_Timer1_init^0,w,c
  3460   002A9A  0BCF               	andlw	-49
  3461   002A9C  1804               	xorwf	??_Timer1_init^0,w,c
  3462   002A9E  6ECD               	movwf	205,c	;volatile
  3463   002AA0                     
  3464                           ;MKAL_layer/timer1/hal_timer1.c: 29:         timer1_mode_cfg(Timer1);
  3465   002AA0  C003  F002         	movff	Timer1_init@Timer1,timer1_mode_cfg@Timer1
  3466   002AA4  EC9E  F016         	call	_timer1_mode_cfg	;wreg free
  3467   002AA8                     
  3468                           ;MKAL_layer/timer1/hal_timer1.c: 31:         timer1_reg_bit_cfg(Timer1);
  3469   002AA8  C003  F002         	movff	Timer1_init@Timer1,timer1_reg_bit_cfg@Timer1
  3470   002AAC  ECD4  F018         	call	_timer1_reg_bit_cfg	;wreg free
  3471   002AB0                     
  3472                           ;MKAL_layer/timer1/hal_timer1.c: 33:         timer1_osc_cfg(Timer1);
  3473   002AB0  C003  F002         	movff	Timer1_init@Timer1,timer1_osc_cfg@Timer1
  3474   002AB4  ECF1  F018         	call	_timer1_osc_cfg	;wreg free
  3475   002AB8                     
  3476                           ;MKAL_layer/timer1/hal_timer1.c: 35:          TMR1H = ((Timer1->timer1_preload_value) >>
      +                           8);
  3477   002AB8  5003               	movf	Timer1_init@Timer1^0,w,c
  3478   002ABA  6ED9               	movwf	fsr2l,c
  3479   002ABC  6ADA               	clrf	fsr2h,c
  3480   002ABE  0E02               	movlw	2
  3481   002AC0  26D9               	addwf	fsr2l,f,c
  3482   002AC2  CFDE F004          	movff	postinc2,??_Timer1_init
  3483   002AC6  CFDD F005          	movff	postdec2,??_Timer1_init+1
  3484   002ACA  C005  F004         	movff	??_Timer1_init+1,??_Timer1_init
  3485   002ACE  6A05               	clrf	(??_Timer1_init+1)^0,c
  3486   002AD0  5004               	movf	??_Timer1_init^0,w,c
  3487   002AD2  6ECF               	movwf	207,c	;volatile
  3488   002AD4                     
  3489                           ;MKAL_layer/timer1/hal_timer1.c: 36:          TMR1L = (uint8)(Timer1->timer1_preload_val
      +                          ue);
  3490   002AD4  5003               	movf	Timer1_init@Timer1^0,w,c
  3491   002AD6  6ED9               	movwf	fsr2l,c
  3492   002AD8  6ADA               	clrf	fsr2h,c
  3493   002ADA  0E02               	movlw	2
  3494   002ADC  26D9               	addwf	fsr2l,f,c
  3495   002ADE  50DF               	movf	indf2,w,c
  3496   002AE0  6ECE               	movwf	206,c	;volatile
  3497   002AE2                     
  3498                           ;MKAL_layer/timer1/hal_timer1.c: 38:          Timer1_preload = Timer1->timer1_preload_va
      +                          lue;
  3499   002AE2  5003               	movf	Timer1_init@Timer1^0,w,c
  3500   002AE4  6ED9               	movwf	fsr2l,c
  3501   002AE6  6ADA               	clrf	fsr2h,c
  3502   002AE8  0E02               	movlw	2
  3503   002AEA  26D9               	addwf	fsr2l,f,c
  3504   002AEC  CFDE F049          	movff	postinc2,_Timer1_preload
  3505   002AF0  CFDD F04A          	movff	postdec2,_Timer1_preload+1
  3506   002AF4                     
  3507                           ;MKAL_layer/timer1/hal_timer1.c: 41:         (PIE1bits.TMR1IE = 1);
  3508   002AF4  809D               	bsf	157,0,c	;volatile
  3509   002AF6                     
  3510                           ;MKAL_layer/timer1/hal_timer1.c: 42:         (PIR1bits.TMR1IF = 0);
  3511   002AF6  909E               	bcf	158,0,c	;volatile
  3512   002AF8                     
  3513                           ;MKAL_layer/timer1/hal_timer1.c: 43:         TIMER1_Interrupthandler = Timer1->Timer1_ha
      +                          ndler;
  3514   002AF8  5003               	movf	Timer1_init@Timer1^0,w,c
  3515   002AFA  6ED9               	movwf	fsr2l,c
  3516   002AFC  6ADA               	clrf	fsr2h,c
  3517   002AFE  CFDE F0D6          	movff	postinc2,_TIMER1_Interrupthandler
  3518   002B02  CFDD F0D7          	movff	postdec2,_TIMER1_Interrupthandler+1
  3519   002B06                     
  3520                           ;MKAL_layer/timer1/hal_timer1.c: 57:         (INTCONbits.GIE =1);
  3521   002B06  8EF2               	bsf	242,7,c	;volatile
  3522   002B08                     
  3523                           ;MKAL_layer/timer1/hal_timer1.c: 58:         (INTCONbits.PEIE =1);
  3524   002B08  8CF2               	bsf	242,6,c	;volatile
  3525   002B0A                     
  3526                           ;MKAL_layer/timer1/hal_timer1.c: 63:         (T1CONbits.TMR1ON =1);
  3527   002B0A  80CD               	bsf	205,0,c	;volatile
  3528   002B0C                     l1327:
  3529   002B0C  0012               	return		;funcret
  3530   002B0E                     __end_of_Timer1_init:
  3531                           	callstack 0
  3532                           
  3533 ;; *************** function _timer1_reg_bit_cfg *****************
  3534 ;; Defined at:
  3535 ;;		line 133 in file "MKAL_layer/timer1/hal_timer1.c"
  3536 ;; Parameters:    Size  Location     Type
  3537 ;;  Timer1          1    1[COMRAM] PTR const struct .
  3538 ;;		 -> Timer1_1(5), 
  3539 ;; Auto vars:     Size  Location     Type
  3540 ;;		None
  3541 ;; Return value:  Size  Location     Type
  3542 ;;                  1    wreg      void 
  3543 ;; Registers used:
  3544 ;;		wreg, fsr2l, fsr2h, status,2, status,0
  3545 ;; Tracked objects:
  3546 ;;		On entry : 0/0
  3547 ;;		On exit  : 0/0
  3548 ;;		Unchanged: 0/0
  3549 ;; Data sizes:     COMRAM   BANK0   BANK1   BANK2   BANK3   BANK4   BANK5   BANK6   BANK7   BANK8   BANK9  BANK10  BANK1
      +1  BANK12  BANK13  BANK14  BANK15
  3550 ;;      Params:         1       0       0       0       0       0       0       0       0       0       0       0       
      +0       0       0       0       0
  3551 ;;      Locals:         0       0       0       0       0       0       0       0       0       0       0       0       
      +0       0       0       0       0
  3552 ;;      Temps:          0       0       0       0       0       0       0       0       0       0       0       0       
      +0       0       0       0       0
  3553 ;;      Totals:         1       0       0       0       0       0       0       0       0       0       0       0       
      +0       0       0       0       0
  3554 ;;Total ram usage:        1 bytes
  3555 ;; Hardware stack levels used: 1
  3556 ;; Hardware stack levels required when called: 2
  3557 ;; This function calls:
  3558 ;;		Nothing
  3559 ;; This function is called by:
  3560 ;;		_Timer1_init
  3561 ;; This function uses a non-reentrant model
  3562 ;;
  3563                           
  3564                           	psect	text15
  3565   0031A8                     __ptext15:
  3566                           	callstack 0
  3567   0031A8                     _timer1_reg_bit_cfg:
  3568                           	callstack 26
  3569   0031A8                     
  3570                           ;MKAL_layer/timer1/hal_timer1.c: 134:     if(Timer1->timer1_wr__reg_cfg == 0){
  3571   0031A8  5002               	movf	timer1_reg_bit_cfg@Timer1^0,w,c
  3572   0031AA  6ED9               	movwf	fsr2l,c
  3573   0031AC  6ADA               	clrf	fsr2h,c
  3574   0031AE  0E04               	movlw	4
  3575   0031B0  26D9               	addwf	fsr2l,f,c
  3576   0031B2  BADF               	btfsc	indf2,5,c
  3577   0031B4  EFDE  F018         	goto	u5441
  3578   0031B8  EFE0  F018         	goto	u5440
  3579   0031BC                     u5441:
  3580   0031BC  EFE3  F018         	goto	l6205
  3581   0031C0                     u5440:
  3582   0031C0                     
  3583                           ;MKAL_layer/timer1/hal_timer1.c: 135:         (T1CONbits.RD16 =0);
  3584   0031C0  9ECD               	bcf	205,7,c	;volatile
  3585                           
  3586                           ;MKAL_layer/timer1/hal_timer1.c: 136:     }
  3587   0031C2  EFF0  F018         	goto	l1362
  3588   0031C6                     l6205:
  3589   0031C6  5002               	movf	timer1_reg_bit_cfg@Timer1^0,w,c
  3590   0031C8  6ED9               	movwf	fsr2l,c
  3591   0031CA  6ADA               	clrf	fsr2h,c
  3592   0031CC  0E04               	movlw	4
  3593   0031CE  26D9               	addwf	fsr2l,f,c
  3594   0031D0  AADF               	btfss	indf2,5,c
  3595   0031D2  EFED  F018         	goto	u5451
  3596   0031D6  EFEF  F018         	goto	u5450
  3597   0031DA                     u5451:
  3598   0031DA  EFF0  F018         	goto	l1362
  3599   0031DE                     u5450:
  3600   0031DE                     
  3601                           ;MKAL_layer/timer1/hal_timer1.c: 138:         (T1CONbits.RD16 =1);
  3602   0031DE  8ECD               	bsf	205,7,c	;volatile
  3603   0031E0                     l1362:
  3604   0031E0  0012               	return		;funcret
  3605   0031E2                     __end_of_timer1_reg_bit_cfg:
  3606                           	callstack 0
  3607                           
  3608 ;; *************** function _timer1_osc_cfg *****************
  3609 ;; Defined at:
  3610 ;;		line 143 in file "MKAL_layer/timer1/hal_timer1.c"
  3611 ;; Parameters:    Size  Location     Type
  3612 ;;  Timer1          1    1[COMRAM] PTR const struct .
  3613 ;;		 -> Timer1_1(5), 
  3614 ;; Auto vars:     Size  Location     Type
  3615 ;;		None
  3616 ;; Return value:  Size  Location     Type
  3617 ;;                  1    wreg      void 
  3618 ;; Registers used:
  3619 ;;		wreg, fsr2l, fsr2h, status,2, status,0
  3620 ;; Tracked objects:
  3621 ;;		On entry : 0/0
  3622 ;;		On exit  : 0/0
  3623 ;;		Unchanged: 0/0
  3624 ;; Data sizes:     COMRAM   BANK0   BANK1   BANK2   BANK3   BANK4   BANK5   BANK6   BANK7   BANK8   BANK9  BANK10  BANK1
      +1  BANK12  BANK13  BANK14  BANK15
  3625 ;;      Params:         1       0       0       0       0       0       0       0       0       0       0       0       
      +0       0       0       0       0
  3626 ;;      Locals:         0       0       0       0       0       0       0       0       0       0       0       0       
      +0       0       0       0       0
  3627 ;;      Temps:          0       0       0       0       0       0       0       0       0       0       0       0       
      +0       0       0       0       0
  3628 ;;      Totals:         1       0       0       0       0       0       0       0       0       0       0       0       
      +0       0       0       0       0
  3629 ;;Total ram usage:        1 bytes
  3630 ;; Hardware stack levels used: 1
  3631 ;; Hardware stack levels required when called: 2
  3632 ;; This function calls:
  3633 ;;		Nothing
  3634 ;; This function is called by:
  3635 ;;		_Timer1_init
  3636 ;; This function uses a non-reentrant model
  3637 ;;
  3638                           
  3639                           	psect	text16
  3640   0031E2                     __ptext16:
  3641                           	callstack 0
  3642   0031E2                     _timer1_osc_cfg:
  3643                           	callstack 26
  3644   0031E2                     
  3645                           ;MKAL_layer/timer1/hal_timer1.c: 144:     if(Timer1->timer1_osc_cfg == 1){
  3646   0031E2  5002               	movf	timer1_osc_cfg@Timer1^0,w,c
  3647   0031E4  6ED9               	movwf	fsr2l,c
  3648   0031E6  6ADA               	clrf	fsr2h,c
  3649   0031E8  0E04               	movlw	4
  3650   0031EA  26D9               	addwf	fsr2l,f,c
  3651   0031EC  A8DF               	btfss	indf2,4,c
  3652   0031EE  EFFB  F018         	goto	u5461
  3653   0031F2  EFFD  F018         	goto	u5460
  3654   0031F6                     u5461:
  3655   0031F6  EF00  F019         	goto	l6213
  3656   0031FA                     u5460:
  3657   0031FA                     
  3658                           ;MKAL_layer/timer1/hal_timer1.c: 145:         (T1CONbits.T1OSCEN =1);
  3659   0031FA  86CD               	bsf	205,3,c	;volatile
  3660                           
  3661                           ;MKAL_layer/timer1/hal_timer1.c: 146:     }
  3662   0031FC  EF0D  F019         	goto	l1369
  3663   003200                     l6213:
  3664   003200  5002               	movf	timer1_osc_cfg@Timer1^0,w,c
  3665   003202  6ED9               	movwf	fsr2l,c
  3666   003204  6ADA               	clrf	fsr2h,c
  3667   003206  0E04               	movlw	4
  3668   003208  26D9               	addwf	fsr2l,f,c
  3669   00320A  B8DF               	btfsc	indf2,4,c
  3670   00320C  EF0A  F019         	goto	u5471
  3671   003210  EF0C  F019         	goto	u5470
  3672   003214                     u5471:
  3673   003214  EF0D  F019         	goto	l1369
  3674   003218                     u5470:
  3675   003218                     
  3676                           ;MKAL_layer/timer1/hal_timer1.c: 148:         (T1CONbits.T1OSCEN =0);
  3677   003218  96CD               	bcf	205,3,c	;volatile
  3678   00321A                     l1369:
  3679   00321A  0012               	return		;funcret
  3680   00321C                     __end_of_timer1_osc_cfg:
  3681                           	callstack 0
  3682                           
  3683 ;; *************** function _timer1_mode_cfg *****************
  3684 ;; Defined at:
  3685 ;;		line 116 in file "MKAL_layer/timer1/hal_timer1.c"
  3686 ;; Parameters:    Size  Location     Type
  3687 ;;  Timer1          1    1[COMRAM] PTR const struct .
  3688 ;;		 -> Timer1_1(5), 
  3689 ;; Auto vars:     Size  Location     Type
  3690 ;;		None
  3691 ;; Return value:  Size  Location     Type
  3692 ;;                  1    wreg      void 
  3693 ;; Registers used:
  3694 ;;		wreg, fsr2l, fsr2h, status,2, status,0
  3695 ;; Tracked objects:
  3696 ;;		On entry : 0/0
  3697 ;;		On exit  : 0/0
  3698 ;;		Unchanged: 0/0
  3699 ;; Data sizes:     COMRAM   BANK0   BANK1   BANK2   BANK3   BANK4   BANK5   BANK6   BANK7   BANK8   BANK9  BANK10  BANK1
      +1  BANK12  BANK13  BANK14  BANK15
  3700 ;;      Params:         1       0       0       0       0       0       0       0       0       0       0       0       
      +0       0       0       0       0
  3701 ;;      Locals:         0       0       0       0       0       0       0       0       0       0       0       0       
      +0       0       0       0       0
  3702 ;;      Temps:          0       0       0       0       0       0       0       0       0       0       0       0       
      +0       0       0       0       0
  3703 ;;      Totals:         1       0       0       0       0       0       0       0       0       0       0       0       
      +0       0       0       0       0
  3704 ;;Total ram usage:        1 bytes
  3705 ;; Hardware stack levels used: 1
  3706 ;; Hardware stack levels required when called: 2
  3707 ;; This function calls:
  3708 ;;		Nothing
  3709 ;; This function is called by:
  3710 ;;		_Timer1_init
  3711 ;; This function uses a non-reentrant model
  3712 ;;
  3713                           
  3714                           	psect	text17
  3715   002D3C                     __ptext17:
  3716                           	callstack 0
  3717   002D3C                     _timer1_mode_cfg:
  3718                           	callstack 26
  3719   002D3C                     
  3720                           ;MKAL_layer/timer1/hal_timer1.c: 117:     if(Timer1->timer1_mode == 1){
  3721   002D3C  5002               	movf	timer1_mode_cfg@Timer1^0,w,c
  3722   002D3E  6ED9               	movwf	fsr2l,c
  3723   002D40  6ADA               	clrf	fsr2h,c
  3724   002D42  0E04               	movlw	4
  3725   002D44  26D9               	addwf	fsr2l,f,c
  3726   002D46  A4DF               	btfss	indf2,2,c
  3727   002D48  EFA8  F016         	goto	u5401
  3728   002D4C  EFAA  F016         	goto	u5400
  3729   002D50                     u5401:
  3730   002D50  EFCB  F016         	goto	l6197
  3731   002D54                     u5400:
  3732   002D54                     
  3733                           ;MKAL_layer/timer1/hal_timer1.c: 118:          (T1CONbits.TMR1CS =1);
  3734   002D54  82CD               	bsf	205,1,c	;volatile
  3735   002D56                     
  3736                           ;MKAL_layer/timer1/hal_timer1.c: 119:         if(Timer1->timer1_counter_mode == 1){
  3737   002D56  5002               	movf	timer1_mode_cfg@Timer1^0,w,c
  3738   002D58  6ED9               	movwf	fsr2l,c
  3739   002D5A  6ADA               	clrf	fsr2h,c
  3740   002D5C  0E04               	movlw	4
  3741   002D5E  26D9               	addwf	fsr2l,f,c
  3742   002D60  A6DF               	btfss	indf2,3,c
  3743   002D62  EFB5  F016         	goto	u5411
  3744   002D66  EFB7  F016         	goto	u5410
  3745   002D6A                     u5411:
  3746   002D6A  EFBA  F016         	goto	l6193
  3747   002D6E                     u5410:
  3748   002D6E                     
  3749                           ;MKAL_layer/timer1/hal_timer1.c: 120:             (T1CONbits.nT1SYNC =1);
  3750   002D6E  84CD               	bsf	205,2,c	;volatile
  3751                           
  3752                           ;MKAL_layer/timer1/hal_timer1.c: 121:         }
  3753   002D70  EFD8  F016         	goto	l1355
  3754   002D74                     l6193:
  3755   002D74  5002               	movf	timer1_mode_cfg@Timer1^0,w,c
  3756   002D76  6ED9               	movwf	fsr2l,c
  3757   002D78  6ADA               	clrf	fsr2h,c
  3758   002D7A  0E04               	movlw	4
  3759   002D7C  26D9               	addwf	fsr2l,f,c
  3760   002D7E  B6DF               	btfsc	indf2,3,c
  3761   002D80  EFC4  F016         	goto	u5421
  3762   002D84  EFC6  F016         	goto	u5420
  3763   002D88                     u5421:
  3764   002D88  EFC9  F016         	goto	l1349
  3765   002D8C                     u5420:
  3766   002D8C                     
  3767                           ;MKAL_layer/timer1/hal_timer1.c: 123:             (T1CONbits.nT1SYNC =0);
  3768   002D8C  94CD               	bcf	205,2,c	;volatile
  3769                           
  3770                           ;MKAL_layer/timer1/hal_timer1.c: 124:         }
  3771   002D8E  EFD8  F016         	goto	l1355
  3772   002D92                     l1349:
  3773                           
  3774                           ;MKAL_layer/timer1/hal_timer1.c: 126:     }
  3775   002D92  EFD8  F016         	goto	l1355
  3776   002D96                     l6197:
  3777   002D96  5002               	movf	timer1_mode_cfg@Timer1^0,w,c
  3778   002D98  6ED9               	movwf	fsr2l,c
  3779   002D9A  6ADA               	clrf	fsr2h,c
  3780   002D9C  0E04               	movlw	4
  3781   002D9E  26D9               	addwf	fsr2l,f,c
  3782   002DA0  B4DF               	btfsc	indf2,2,c
  3783   002DA2  EFD5  F016         	goto	u5431
  3784   002DA6  EFD7  F016         	goto	u5430
  3785   002DAA                     u5431:
  3786   002DAA  EFD8  F016         	goto	l1355
  3787   002DAE                     u5430:
  3788   002DAE                     
  3789                           ;MKAL_layer/timer1/hal_timer1.c: 128:        (T1CONbits.TMR1CS =0);
  3790   002DAE  92CD               	bcf	205,1,c	;volatile
  3791   002DB0                     l1355:
  3792   002DB0  0012               	return		;funcret
  3793   002DB2                     __end_of_timer1_mode_cfg:
  3794                           	callstack 0
  3795                           
  3796 ;; *************** function _MSSP_I2C_Init *****************
  3797 ;; Defined at:
  3798 ;;		line 20 in file "MKAL_layer/I2C/hal_i2c.c"
  3799 ;; Parameters:    Size  Location     Type
  3800 ;;  i2c_obj         1   68[COMRAM] PTR const struct .
  3801 ;;		 -> mssp_i2c(15), 
  3802 ;; Auto vars:     Size  Location     Type
  3803 ;;  ret             1   69[COMRAM] unsigned char 
  3804 ;; Return value:  Size  Location     Type
  3805 ;;                  1    wreg      unsigned char 
  3806 ;; Registers used:
  3807 ;;		wreg, fsr2l, fsr2h, status,2, status,0, cstack
  3808 ;; Tracked objects:
  3809 ;;		On entry : 0/0
  3810 ;;		On exit  : 0/0
  3811 ;;		Unchanged: 0/0
  3812 ;; Data sizes:     COMRAM   BANK0   BANK1   BANK2   BANK3   BANK4   BANK5   BANK6   BANK7   BANK8   BANK9  BANK10  BANK1
      +1  BANK12  BANK13  BANK14  BANK15
  3813 ;;      Params:         1       0       0       0       0       0       0       0       0       0       0       0       
      +0       0       0       0       0
  3814 ;;      Locals:         1       0       0       0       0       0       0       0       0       0       0       0       
      +0       0       0       0       0
  3815 ;;      Temps:          0       0       0       0       0       0       0       0       0       0       0       0       
      +0       0       0       0       0
  3816 ;;      Totals:         2       0       0       0       0       0       0       0       0       0       0       0       
      +0       0       0       0       0
  3817 ;;Total ram usage:        2 bytes
  3818 ;; Hardware stack levels used: 1
  3819 ;; Hardware stack levels required when called: 4
  3820 ;; This function calls:
  3821 ;;		_I2C_Master_Mode_Clock_Configurations
  3822 ;;		_I2C_Slave_Mode_Configurations
  3823 ;;		_MSSP_I2C_Interrupt_Configurations
  3824 ;;		_MSSP_I2C_Mode_GPIO_CFG
  3825 ;; This function is called by:
  3826 ;;		_intitialized_functions
  3827 ;; This function uses a non-reentrant model
  3828 ;;
  3829                           
  3830                           	psect	text18
  3831   002478                     __ptext18:
  3832                           	callstack 0
  3833   002478                     _MSSP_I2C_Init:
  3834                           	callstack 25
  3835   002478                     
  3836                           ;MKAL_layer/I2C/hal_i2c.c: 22:     if(((void*)0) == i2c_obj){
  3837   002478  5045               	movf	MSSP_I2C_Init@i2c_obj^0,w,c
  3838   00247A  A4D8               	btfss	status,2,c
  3839   00247C  EF42  F012         	goto	u5711
  3840   002480  EF44  F012         	goto	u5710
  3841   002484                     u5711:
  3842   002484  EF48  F012         	goto	l776
  3843   002488                     u5710:
  3844   002488                     
  3845                           ;MKAL_layer/I2C/hal_i2c.c: 23:         ret = (Std_ReturnType)0x00;
  3846   002488  0E00               	movlw	0
  3847   00248A  6E46               	movwf	MSSP_I2C_Init@ret^0,c
  3848                           
  3849                           ;MKAL_layer/I2C/hal_i2c.c: 24:     }
  3850   00248C  EFD2  F012         	goto	l6475
  3851   002490                     l776:
  3852                           
  3853                           ;MKAL_layer/I2C/hal_i2c.c: 27:         (SSPCON1bits.SSPEN = 0);
  3854   002490  9AC6               	bcf	198,5,c	;volatile
  3855   002492                     
  3856                           ;MKAL_layer/I2C/hal_i2c.c: 29:         if(1 == i2c_obj->i2c_cfg.i2c_mode){
  3857   002492  5045               	movf	MSSP_I2C_Init@i2c_obj^0,w,c
  3858   002494  6ED9               	movwf	fsr2l,c
  3859   002496  6ADA               	clrf	fsr2h,c
  3860   002498  0E06               	movlw	6
  3861   00249A  26D9               	addwf	fsr2l,f,c
  3862   00249C  A0DF               	btfss	indf2,0,c
  3863   00249E  EF53  F012         	goto	u5721
  3864   0024A2  EF55  F012         	goto	u5720
  3865   0024A6                     u5721:
  3866   0024A6  EF5B  F012         	goto	l6437
  3867   0024AA                     u5720:
  3868   0024AA                     
  3869                           ;MKAL_layer/I2C/hal_i2c.c: 31:             I2C_Master_Mode_Clock_Configurations(i2c_obj)
      +                          ;
  3870   0024AA  C045  F043         	movff	MSSP_I2C_Init@i2c_obj,I2C_Master_Mode_Clock_Configurations@i2c_obj
  3871   0024AE  EC87  F015         	call	_I2C_Master_Mode_Clock_Configurations	;wreg free
  3872                           
  3873                           ;MKAL_layer/I2C/hal_i2c.c: 32:         }
  3874   0024B2  EF91  F012         	goto	l6451
  3875   0024B6                     l6437:
  3876   0024B6  5045               	movf	MSSP_I2C_Init@i2c_obj^0,w,c
  3877   0024B8  6ED9               	movwf	fsr2l,c
  3878   0024BA  6ADA               	clrf	fsr2h,c
  3879   0024BC  0E06               	movlw	6
  3880   0024BE  26D9               	addwf	fsr2l,f,c
  3881   0024C0  B0DF               	btfsc	indf2,0,c
  3882   0024C2  EF65  F012         	goto	u5731
  3883   0024C6  EF67  F012         	goto	u5730
  3884   0024CA                     u5731:
  3885   0024CA  EF91  F012         	goto	l6451
  3886   0024CE                     u5730:
  3887   0024CE                     
  3888                           ;MKAL_layer/I2C/hal_i2c.c: 35:             if(1 == i2c_obj->i2c_cfg.i2c_general_call){
  3889   0024CE  5045               	movf	MSSP_I2C_Init@i2c_obj^0,w,c
  3890   0024D0  6ED9               	movwf	fsr2l,c
  3891   0024D2  6ADA               	clrf	fsr2h,c
  3892   0024D4  0E06               	movlw	6
  3893   0024D6  26D9               	addwf	fsr2l,f,c
  3894   0024D8  A6DF               	btfss	indf2,3,c
  3895   0024DA  EF71  F012         	goto	u5741
  3896   0024DE  EF73  F012         	goto	u5740
  3897   0024E2                     u5741:
  3898   0024E2  EF76  F012         	goto	l6443
  3899   0024E6                     u5740:
  3900   0024E6                     
  3901                           ;MKAL_layer/I2C/hal_i2c.c: 36:                 (SSPCON2bits.GCEN = 1);
  3902   0024E6  8EC5               	bsf	197,7,c	;volatile
  3903                           
  3904                           ;MKAL_layer/I2C/hal_i2c.c: 37:             }
  3905   0024E8  EF83  F012         	goto	l782
  3906   0024EC                     l6443:
  3907   0024EC  5045               	movf	MSSP_I2C_Init@i2c_obj^0,w,c
  3908   0024EE  6ED9               	movwf	fsr2l,c
  3909   0024F0  6ADA               	clrf	fsr2h,c
  3910   0024F2  0E06               	movlw	6
  3911   0024F4  26D9               	addwf	fsr2l,f,c
  3912   0024F6  B6DF               	btfsc	indf2,3,c
  3913   0024F8  EF80  F012         	goto	u5751
  3914   0024FC  EF82  F012         	goto	u5750
  3915   002500                     u5751:
  3916   002500  EF83  F012         	goto	l782
  3917   002504                     u5750:
  3918   002504                     
  3919                           ;MKAL_layer/I2C/hal_i2c.c: 39:                 (SSPCON2bits.GCEN = 0);
  3920   002504  9EC5               	bcf	197,7,c	;volatile
  3921   002506                     l782:
  3922                           
  3923                           ;MKAL_layer/I2C/hal_i2c.c: 43:             SSPCON1bits.WCOL = 0;
  3924   002506  9EC6               	bcf	198,7,c	;volatile
  3925                           
  3926                           ;MKAL_layer/I2C/hal_i2c.c: 45:             SSPCON1bits.SSPOV = 0;
  3927   002508  9CC6               	bcf	198,6,c	;volatile
  3928                           
  3929                           ;MKAL_layer/I2C/hal_i2c.c: 47:             SSPCON1bits.CKP = 1;
  3930   00250A  88C6               	bsf	198,4,c	;volatile
  3931   00250C                     
  3932                           ;MKAL_layer/I2C/hal_i2c.c: 49:             SSPADD = i2c_obj->i2c_cfg.i2c_slave_address;
  3933   00250C  5045               	movf	MSSP_I2C_Init@i2c_obj^0,w,c
  3934   00250E  6ED9               	movwf	fsr2l,c
  3935   002510  6ADA               	clrf	fsr2h,c
  3936   002512  0E05               	movlw	5
  3937   002514  26D9               	addwf	fsr2l,f,c
  3938   002516  50DF               	movf	indf2,w,c
  3939   002518  6EC8               	movwf	200,c	;volatile
  3940   00251A                     
  3941                           ;MKAL_layer/I2C/hal_i2c.c: 51:             I2C_Slave_Mode_Configurations(i2c_obj);
  3942   00251A  C045  F002         	movff	MSSP_I2C_Init@i2c_obj,I2C_Slave_Mode_Configurations@i2c_obj
  3943   00251E  ECBA  F019         	call	_I2C_Slave_Mode_Configurations	;wreg free
  3944   002522                     l6451:
  3945                           
  3946                           ;MKAL_layer/I2C/hal_i2c.c: 55:         MSSP_I2C_Mode_GPIO_CFG();
  3947   002522  EC1C  F01A         	call	_MSSP_I2C_Mode_GPIO_CFG	;wreg free
  3948   002526                     
  3949                           ;MKAL_layer/I2C/hal_i2c.c: 57:         if(1 == i2c_obj->i2c_cfg.i2c_slew_rate){
  3950   002526  5045               	movf	MSSP_I2C_Init@i2c_obj^0,w,c
  3951   002528  6ED9               	movwf	fsr2l,c
  3952   00252A  6ADA               	clrf	fsr2h,c
  3953   00252C  0E06               	movlw	6
  3954   00252E  26D9               	addwf	fsr2l,f,c
  3955   002530  A2DF               	btfss	indf2,1,c
  3956   002532  EF9D  F012         	goto	u5761
  3957   002536  EF9F  F012         	goto	u5760
  3958   00253A                     u5761:
  3959   00253A  EFA2  F012         	goto	l6457
  3960   00253E                     u5760:
  3961   00253E                     
  3962                           ;MKAL_layer/I2C/hal_i2c.c: 58:             (SSPSTATbits.SMP = 1);
  3963   00253E  8EC7               	bsf	199,7,c	;volatile
  3964                           
  3965                           ;MKAL_layer/I2C/hal_i2c.c: 59:         }
  3966   002540  EFAF  F012         	goto	l6461
  3967   002544                     l6457:
  3968   002544  5045               	movf	MSSP_I2C_Init@i2c_obj^0,w,c
  3969   002546  6ED9               	movwf	fsr2l,c
  3970   002548  6ADA               	clrf	fsr2h,c
  3971   00254A  0E06               	movlw	6
  3972   00254C  26D9               	addwf	fsr2l,f,c
  3973   00254E  B2DF               	btfsc	indf2,1,c
  3974   002550  EFAC  F012         	goto	u5771
  3975   002554  EFAE  F012         	goto	u5770
  3976   002558                     u5771:
  3977   002558  EFAF  F012         	goto	l6461
  3978   00255C                     u5770:
  3979   00255C                     
  3980                           ;MKAL_layer/I2C/hal_i2c.c: 61:             (SSPSTATbits.SMP = 0);
  3981   00255C  9EC7               	bcf	199,7,c	;volatile
  3982   00255E                     l6461:
  3983                           
  3984                           ;MKAL_layer/I2C/hal_i2c.c: 65:         if(1 == i2c_obj->i2c_cfg.i2c_SMBus_control){
  3985   00255E  5045               	movf	MSSP_I2C_Init@i2c_obj^0,w,c
  3986   002560  6ED9               	movwf	fsr2l,c
  3987   002562  6ADA               	clrf	fsr2h,c
  3988   002564  0E06               	movlw	6
  3989   002566  26D9               	addwf	fsr2l,f,c
  3990   002568  A4DF               	btfss	indf2,2,c
  3991   00256A  EFB9  F012         	goto	u5781
  3992   00256E  EFBB  F012         	goto	u5780
  3993   002572                     u5781:
  3994   002572  EFBE  F012         	goto	l6465
  3995   002576                     u5780:
  3996   002576                     
  3997                           ;MKAL_layer/I2C/hal_i2c.c: 66:             (SSPSTATbits.CKE = 1);
  3998   002576  8CC7               	bsf	199,6,c	;volatile
  3999                           
  4000                           ;MKAL_layer/I2C/hal_i2c.c: 67:         }
  4001   002578  EFCB  F012         	goto	l6469
  4002   00257C                     l6465:
  4003   00257C  5045               	movf	MSSP_I2C_Init@i2c_obj^0,w,c
  4004   00257E  6ED9               	movwf	fsr2l,c
  4005   002580  6ADA               	clrf	fsr2h,c
  4006   002582  0E06               	movlw	6
  4007   002584  26D9               	addwf	fsr2l,f,c
  4008   002586  B4DF               	btfsc	indf2,2,c
  4009   002588  EFC8  F012         	goto	u5791
  4010   00258C  EFCA  F012         	goto	u5790
  4011   002590                     u5791:
  4012   002590  EFCB  F012         	goto	l6469
  4013   002594                     u5790:
  4014   002594                     
  4015                           ;MKAL_layer/I2C/hal_i2c.c: 69:             (SSPSTATbits.CKE = 0);
  4016   002594  9CC7               	bcf	199,6,c	;volatile
  4017   002596                     l6469:
  4018                           
  4019                           ;MKAL_layer/I2C/hal_i2c.c: 74:       MSSP_I2C_Interrupt_Configurations(i2c_obj);
  4020   002596  C045  F002         	movff	MSSP_I2C_Init@i2c_obj,MSSP_I2C_Interrupt_Configurations@i2c_obj
  4021   00259A  EC92  F018         	call	_MSSP_I2C_Interrupt_Configurations	;wreg free
  4022   00259E                     
  4023                           ;MKAL_layer/I2C/hal_i2c.c: 77:         (SSPCON1bits.SSPEN = 1);
  4024   00259E  8AC6               	bsf	198,5,c	;volatile
  4025   0025A0                     
  4026                           ;MKAL_layer/I2C/hal_i2c.c: 78:         ret = (Std_ReturnType)0x01;
  4027   0025A0  0E01               	movlw	1
  4028   0025A2  6E46               	movwf	MSSP_I2C_Init@ret^0,c
  4029   0025A4                     l6475:
  4030                           
  4031                           ;MKAL_layer/I2C/hal_i2c.c: 80:     return ret;
  4032   0025A4  5046               	movf	MSSP_I2C_Init@ret^0,w,c
  4033   0025A6  0012               	return		;funcret
  4034   0025A8                     __end_of_MSSP_I2C_Init:
  4035                           	callstack 0
  4036                           
  4037 ;; *************** function _MSSP_I2C_Mode_GPIO_CFG *****************
  4038 ;; Defined at:
  4039 ;;		line 294 in file "MKAL_layer/I2C/hal_i2c.c"
  4040 ;; Parameters:    Size  Location     Type
  4041 ;;		None
  4042 ;; Auto vars:     Size  Location     Type
  4043 ;;		None
  4044 ;; Return value:  Size  Location     Type
  4045 ;;                  1    wreg      void 
  4046 ;; Registers used:
  4047 ;;		None
  4048 ;; Tracked objects:
  4049 ;;		On entry : 0/0
  4050 ;;		On exit  : 0/0
  4051 ;;		Unchanged: 0/0
  4052 ;; Data sizes:     COMRAM   BANK0   BANK1   BANK2   BANK3   BANK4   BANK5   BANK6   BANK7   BANK8   BANK9  BANK10  BANK1
      +1  BANK12  BANK13  BANK14  BANK15
  4053 ;;      Params:         0       0       0       0       0       0       0       0       0       0       0       0       
      +0       0       0       0       0
  4054 ;;      Locals:         0       0       0       0       0       0       0       0       0       0       0       0       
      +0       0       0       0       0
  4055 ;;      Temps:          0       0       0       0       0       0       0       0       0       0       0       0       
      +0       0       0       0       0
  4056 ;;      Totals:         0       0       0       0       0       0       0       0       0       0       0       0       
      +0       0       0       0       0
  4057 ;;Total ram usage:        0 bytes
  4058 ;; Hardware stack levels used: 1
  4059 ;; Hardware stack levels required when called: 2
  4060 ;; This function calls:
  4061 ;;		Nothing
  4062 ;; This function is called by:
  4063 ;;		_MSSP_I2C_Init
  4064 ;; This function uses a non-reentrant model
  4065 ;;
  4066                           
  4067                           	psect	text19
  4068   003438                     __ptext19:
  4069                           	callstack 0
  4070   003438                     _MSSP_I2C_Mode_GPIO_CFG:
  4071                           	callstack 26
  4072   003438                     
  4073                           ;MKAL_layer/I2C/hal_i2c.c: 295:     TRISCbits.TRISC3 = 1;
  4074   003438  8694               	bsf	148,3,c	;volatile
  4075                           
  4076                           ;MKAL_layer/I2C/hal_i2c.c: 296:     TRISCbits.TRISC4 = 1;
  4077   00343A  8894               	bsf	148,4,c	;volatile
  4078   00343C  0012               	return		;funcret
  4079   00343E                     __end_of_MSSP_I2C_Mode_GPIO_CFG:
  4080                           	callstack 0
  4081                           
  4082 ;; *************** function _MSSP_I2C_Interrupt_Configurations *****************
  4083 ;; Defined at:
  4084 ;;		line 309 in file "MKAL_layer/I2C/hal_i2c.c"
  4085 ;; Parameters:    Size  Location     Type
  4086 ;;  i2c_obj         1    1[COMRAM] PTR const struct .
  4087 ;;		 -> mssp_i2c(15), 
  4088 ;; Auto vars:     Size  Location     Type
  4089 ;;		None
  4090 ;; Return value:  Size  Location     Type
  4091 ;;                  1    wreg      void 
  4092 ;; Registers used:
  4093 ;;		wreg, fsr2l, fsr2h, status,2, status,0
  4094 ;; Tracked objects:
  4095 ;;		On entry : 0/0
  4096 ;;		On exit  : 0/0
  4097 ;;		Unchanged: 0/0
  4098 ;; Data sizes:     COMRAM   BANK0   BANK1   BANK2   BANK3   BANK4   BANK5   BANK6   BANK7   BANK8   BANK9  BANK10  BANK1
      +1  BANK12  BANK13  BANK14  BANK15
  4099 ;;      Params:         1       0       0       0       0       0       0       0       0       0       0       0       
      +0       0       0       0       0
  4100 ;;      Locals:         0       0       0       0       0       0       0       0       0       0       0       0       
      +0       0       0       0       0
  4101 ;;      Temps:          0       0       0       0       0       0       0       0       0       0       0       0       
      +0       0       0       0       0
  4102 ;;      Totals:         1       0       0       0       0       0       0       0       0       0       0       0       
      +0       0       0       0       0
  4103 ;;Total ram usage:        1 bytes
  4104 ;; Hardware stack levels used: 1
  4105 ;; Hardware stack levels required when called: 2
  4106 ;; This function calls:
  4107 ;;		Nothing
  4108 ;; This function is called by:
  4109 ;;		_MSSP_I2C_Init
  4110 ;; This function uses a non-reentrant model
  4111 ;;
  4112                           
  4113                           	psect	text20
  4114   003124                     __ptext20:
  4115                           	callstack 0
  4116   003124                     _MSSP_I2C_Interrupt_Configurations:
  4117                           	callstack 26
  4118   003124                     
  4119                           ;MKAL_layer/I2C/hal_i2c.c: 311:         (PIE1bits.SSPIE = 1);
  4120   003124  869D               	bsf	157,3,c	;volatile
  4121                           
  4122                           ;MKAL_layer/I2C/hal_i2c.c: 312:         (PIE2bits.BCLIE = 1);
  4123   003126  86A0               	bsf	160,3,c	;volatile
  4124                           
  4125                           ;MKAL_layer/I2C/hal_i2c.c: 313:         (PIR1bits.SSPIF = 0);
  4126   003128  969E               	bcf	158,3,c	;volatile
  4127                           
  4128                           ;MKAL_layer/I2C/hal_i2c.c: 314:         (PIR2bits.BCLIF = 0);
  4129   00312A  96A1               	bcf	161,3,c	;volatile
  4130   00312C                     
  4131                           ;MKAL_layer/I2C/hal_i2c.c: 315:         I2C_Report_Write_Collision_InterruptHandler = i2
      +                          c_obj->I2C_Report_Write_Collision;
  4132   00312C  5002               	movf	MSSP_I2C_Interrupt_Configurations@i2c_obj^0,w,c
  4133   00312E  6ED9               	movwf	fsr2l,c
  4134   003130  6ADA               	clrf	fsr2h,c
  4135   003132  0E09               	movlw	9
  4136   003134  26D9               	addwf	fsr2l,f,c
  4137   003136  CFDE F0F4          	movff	postinc2,_I2C_Report_Write_Collision_InterruptHandler
  4138   00313A  CFDD F0F5          	movff	postdec2,_I2C_Report_Write_Collision_InterruptHandler+1
  4139                           
  4140                           ;MKAL_layer/I2C/hal_i2c.c: 316:         I2C_DefaultInterruptHandle = i2c_obj->I2C_Defaul
      +                          tInterruptHandler;
  4141   00313E  5002               	movf	MSSP_I2C_Interrupt_Configurations@i2c_obj^0,w,c
  4142   003140  6ED9               	movwf	fsr2l,c
  4143   003142  6ADA               	clrf	fsr2h,c
  4144   003144  0E0B               	movlw	11
  4145   003146  26D9               	addwf	fsr2l,f,c
  4146   003148  CFDE F0F2          	movff	postinc2,_I2C_DefaultInterruptHandle
  4147   00314C  CFDD F0F3          	movff	postdec2,_I2C_DefaultInterruptHandle+1
  4148                           
  4149                           ;MKAL_layer/I2C/hal_i2c.c: 317:         I2C_Report_Receive_Overflow_InterruptHandle = i2
      +                          c_obj->I2C_Report_Receive_Overflow;
  4150   003150  5002               	movf	MSSP_I2C_Interrupt_Configurations@i2c_obj^0,w,c
  4151   003152  6ED9               	movwf	fsr2l,c
  4152   003154  6ADA               	clrf	fsr2h,c
  4153   003156  0E0D               	movlw	13
  4154   003158  26D9               	addwf	fsr2l,f,c
  4155   00315A  CFDE F0F0          	movff	postinc2,_I2C_Report_Receive_Overflow_InterruptHandle
  4156   00315E  CFDD F0F1          	movff	postdec2,_I2C_Report_Receive_Overflow_InterruptHandle+1
  4157   003162                     
  4158                           ;MKAL_layer/I2C/hal_i2c.c: 345:         (INTCONbits.GIE =1);
  4159   003162  8EF2               	bsf	242,7,c	;volatile
  4160   003164                     
  4161                           ;MKAL_layer/I2C/hal_i2c.c: 346:         (INTCONbits.PEIE =1);
  4162   003164  8CF2               	bsf	242,6,c	;volatile
  4163   003166  0012               	return		;funcret
  4164   003168                     __end_of_MSSP_I2C_Interrupt_Configurations:
  4165                           	callstack 0
  4166                           
  4167 ;; *************** function _I2C_Slave_Mode_Configurations *****************
  4168 ;; Defined at:
  4169 ;;		line 305 in file "MKAL_layer/I2C/hal_i2c.c"
  4170 ;; Parameters:    Size  Location     Type
  4171 ;;  i2c_obj         1    1[COMRAM] PTR const struct .
  4172 ;;		 -> mssp_i2c(15), 
  4173 ;; Auto vars:     Size  Location     Type
  4174 ;;		None
  4175 ;; Return value:  Size  Location     Type
  4176 ;;                  1    wreg      void 
  4177 ;; Registers used:
  4178 ;;		wreg, fsr2l, fsr2h, status,2, status,0
  4179 ;; Tracked objects:
  4180 ;;		On entry : 0/0
  4181 ;;		On exit  : 0/0
  4182 ;;		Unchanged: 0/0
  4183 ;; Data sizes:     COMRAM   BANK0   BANK1   BANK2   BANK3   BANK4   BANK5   BANK6   BANK7   BANK8   BANK9  BANK10  BANK1
      +1  BANK12  BANK13  BANK14  BANK15
  4184 ;;      Params:         1       0       0       0       0       0       0       0       0       0       0       0       
      +0       0       0       0       0
  4185 ;;      Locals:         0       0       0       0       0       0       0       0       0       0       0       0       
      +0       0       0       0       0
  4186 ;;      Temps:          1       0       0       0       0       0       0       0       0       0       0       0       
      +0       0       0       0       0
  4187 ;;      Totals:         2       0       0       0       0       0       0       0       0       0       0       0       
      +0       0       0       0       0
  4188 ;;Total ram usage:        2 bytes
  4189 ;; Hardware stack levels used: 1
  4190 ;; Hardware stack levels required when called: 2
  4191 ;; This function calls:
  4192 ;;		Nothing
  4193 ;; This function is called by:
  4194 ;;		_MSSP_I2C_Init
  4195 ;; This function uses a non-reentrant model
  4196 ;;
  4197                           
  4198                           	psect	text21
  4199   003374                     __ptext21:
  4200                           	callstack 0
  4201   003374                     _I2C_Slave_Mode_Configurations:
  4202                           	callstack 26
  4203   003374                     
  4204                           ;MKAL_layer/I2C/hal_i2c.c: 306:     SSPCON1bits.SSPM = i2c_obj->i2c_cfg.i2c_mode_cfg;
  4205   003374  5002               	movf	I2C_Slave_Mode_Configurations@i2c_obj^0,w,c
  4206   003376  6ED9               	movwf	fsr2l,c
  4207   003378  6ADA               	clrf	fsr2h,c
  4208   00337A  0E04               	movlw	4
  4209   00337C  26D9               	addwf	fsr2l,f,c
  4210   00337E  50DF               	movf	indf2,w,c
  4211   003380  6E03               	movwf	??_I2C_Slave_Mode_Configurations^0,c
  4212   003382  50C6               	movf	198,w,c	;volatile
  4213   003384  1803               	xorwf	??_I2C_Slave_Mode_Configurations^0,w,c
  4214   003386  0BF0               	andlw	-16
  4215   003388  1803               	xorwf	??_I2C_Slave_Mode_Configurations^0,w,c
  4216   00338A  6EC6               	movwf	198,c	;volatile
  4217   00338C  0012               	return		;funcret
  4218   00338E                     __end_of_I2C_Slave_Mode_Configurations:
  4219                           	callstack 0
  4220                           
  4221 ;; *************** function _I2C_Master_Mode_Clock_Configurations *****************
  4222 ;; Defined at:
  4223 ;;		line 299 in file "MKAL_layer/I2C/hal_i2c.c"
  4224 ;; Parameters:    Size  Location     Type
  4225 ;;  i2c_obj         1   66[COMRAM] PTR const struct .
  4226 ;;		 -> mssp_i2c(15), 
  4227 ;; Auto vars:     Size  Location     Type
  4228 ;;		None
  4229 ;; Return value:  Size  Location     Type
  4230 ;;                  1    wreg      void 
  4231 ;; Registers used:
  4232 ;;		wreg, fsr2l, fsr2h, status,2, status,0, cstack
  4233 ;; Tracked objects:
  4234 ;;		On entry : 0/0
  4235 ;;		On exit  : 0/0
  4236 ;;		Unchanged: 0/0
  4237 ;; Data sizes:     COMRAM   BANK0   BANK1   BANK2   BANK3   BANK4   BANK5   BANK6   BANK7   BANK8   BANK9  BANK10  BANK1
      +1  BANK12  BANK13  BANK14  BANK15
  4238 ;;      Params:         1       0       0       0       0       0       0       0       0       0       0       0       
      +0       0       0       0       0
  4239 ;;      Locals:         0       0       0       0       0       0       0       0       0       0       0       0       
      +0       0       0       0       0
  4240 ;;      Temps:          1       0       0       0       0       0       0       0       0       0       0       0       
      +0       0       0       0       0
  4241 ;;      Totals:         2       0       0       0       0       0       0       0       0       0       0       0       
      +0       0       0       0       0
  4242 ;;Total ram usage:        2 bytes
  4243 ;; Hardware stack levels used: 1
  4244 ;; Hardware stack levels required when called: 3
  4245 ;; This function calls:
  4246 ;;		___fladd
  4247 ;;		___fldiv
  4248 ;;		___fltol
  4249 ;;		___xxtofl
  4250 ;; This function is called by:
  4251 ;;		_MSSP_I2C_Init
  4252 ;; This function uses a non-reentrant model
  4253 ;;
  4254                           
  4255                           	psect	text22
  4256   002B0E                     __ptext22:
  4257                           	callstack 0
  4258   002B0E                     _I2C_Master_Mode_Clock_Configurations:
  4259                           	callstack 25
  4260   002B0E                     
  4261                           ;MKAL_layer/I2C/hal_i2c.c: 301:     SSPCON1bits.SSPM = i2c_obj->i2c_cfg.i2c_mode_cfg;
  4262   002B0E  5043               	movf	I2C_Master_Mode_Clock_Configurations@i2c_obj^0,w,c
  4263   002B10  6ED9               	movwf	fsr2l,c
  4264   002B12  6ADA               	clrf	fsr2h,c
  4265   002B14  0E04               	movlw	4
  4266   002B16  26D9               	addwf	fsr2l,f,c
  4267   002B18  50DF               	movf	indf2,w,c
  4268   002B1A  6E44               	movwf	??_I2C_Master_Mode_Clock_Configurations^0,c
  4269   002B1C  50C6               	movf	198,w,c	;volatile
  4270   002B1E  1844               	xorwf	??_I2C_Master_Mode_Clock_Configurations^0,w,c
  4271   002B20  0BF0               	andlw	-16
  4272   002B22  1844               	xorwf	??_I2C_Master_Mode_Clock_Configurations^0,w,c
  4273   002B24  6EC6               	movwf	198,c	;volatile
  4274   002B26                     
  4275                           ;MKAL_layer/I2C/hal_i2c.c: 302:     SSPADD = (uint8)(((4000000UL / 4.0) / i2c_obj->i2c_c
      +                          lock) - 1);
  4276   002B26  0E00               	movlw	0
  4277   002B28  6E2D               	movwf	___fladd@a^0,c
  4278   002B2A  0E00               	movlw	0
  4279   002B2C  6E2E               	movwf	(___fladd@a+1)^0,c
  4280   002B2E  0E80               	movlw	128
  4281   002B30  6E2F               	movwf	(___fladd@a+2)^0,c
  4282   002B32  0EBF               	movlw	191
  4283   002B34  6E30               	movwf	(___fladd@a+3)^0,c
  4284   002B36  5043               	movf	I2C_Master_Mode_Clock_Configurations@i2c_obj^0,w,c
  4285   002B38  6ED9               	movwf	fsr2l,c
  4286   002B3A  6ADA               	clrf	fsr2h,c
  4287   002B3C  CFDE F002          	movff	postinc2,___xxtofl@val
  4288   002B40  CFDE F003          	movff	postinc2,___xxtofl@val+1
  4289   002B44  CFDE F004          	movff	postinc2,___xxtofl@val+2
  4290   002B48  CFDE F005          	movff	postinc2,___xxtofl@val+3
  4291   002B4C  0E00               	movlw	0
  4292   002B4E  EC62  F011         	call	___xxtofl
  4293   002B52  C002  F014         	movff	?___xxtofl,___fldiv@a
  4294   002B56  C003  F015         	movff	?___xxtofl+1,___fldiv@a+1
  4295   002B5A  C004  F016         	movff	?___xxtofl+2,___fldiv@a+2
  4296   002B5E  C005  F017         	movff	?___xxtofl+3,___fldiv@a+3
  4297   002B62  0E00               	movlw	0
  4298   002B64  6E10               	movwf	___fldiv@b^0,c
  4299   002B66  0E24               	movlw	36
  4300   002B68  6E11               	movwf	(___fldiv@b+1)^0,c
  4301   002B6A  0E74               	movlw	116
  4302   002B6C  6E12               	movwf	(___fldiv@b+2)^0,c
  4303   002B6E  0E49               	movlw	73
  4304   002B70  6E13               	movwf	(___fldiv@b+3)^0,c
  4305   002B72  EC95  F00F         	call	___fldiv	;wreg free
  4306   002B76  C010  F029         	movff	?___fldiv,___fladd@b
  4307   002B7A  C011  F02A         	movff	?___fldiv+1,___fladd@b+1
  4308   002B7E  C012  F02B         	movff	?___fldiv+2,___fladd@b+2
  4309   002B82  C013  F02C         	movff	?___fldiv+3,___fladd@b+3
  4310   002B86  EC42  F00B         	call	___fladd	;wreg free
  4311   002B8A  C029  F039         	movff	?___fladd,___fltol@f1
  4312   002B8E  C02A  F03A         	movff	?___fladd+1,___fltol@f1+1
  4313   002B92  C02B  F03B         	movff	?___fladd+2,___fltol@f1+2
  4314   002B96  C02C  F03C         	movff	?___fladd+3,___fltol@f1+3
  4315   002B9A  ECEF  F013         	call	___fltol	;wreg free
  4316   002B9E  5039               	movf	?___fltol^0,w,c
  4317   002BA0  6EC8               	movwf	200,c	;volatile
  4318   002BA2  0012               	return		;funcret
  4319   002BA4                     __end_of_I2C_Master_Mode_Clock_Configurations:
  4320                           	callstack 0
  4321                           
  4322 ;; *************** function ___xxtofl *****************
  4323 ;; Defined at:
  4324 ;;		line 10 in file "C:\Program Files\Microchip\xc8\v2.45\pic\sources\c99\common\xxtofl.c"
  4325 ;; Parameters:    Size  Location     Type
  4326 ;;  sign            1    wreg     unsigned char 
  4327 ;;  val             4    1[COMRAM] long 
  4328 ;; Auto vars:     Size  Location     Type
  4329 ;;  sign            1    9[COMRAM] unsigned char 
  4330 ;;  arg             4   11[COMRAM] unsigned long 
  4331 ;;  exp             1   10[COMRAM] unsigned char 
  4332 ;; Return value:  Size  Location     Type
  4333 ;;                  4    1[COMRAM] unsigned char 
  4334 ;; Registers used:
  4335 ;;		wreg, status,2, status,0
  4336 ;; Tracked objects:
  4337 ;;		On entry : 0/0
  4338 ;;		On exit  : 0/0
  4339 ;;		Unchanged: 0/0
  4340 ;; Data sizes:     COMRAM   BANK0   BANK1   BANK2   BANK3   BANK4   BANK5   BANK6   BANK7   BANK8   BANK9  BANK10  BANK1
      +1  BANK12  BANK13  BANK14  BANK15
  4341 ;;      Params:         4       0       0       0       0       0       0       0       0       0       0       0       
      +0       0       0       0       0
  4342 ;;      Locals:         6       0       0       0       0       0       0       0       0       0       0       0       
      +0       0       0       0       0
  4343 ;;      Temps:          4       0       0       0       0       0       0       0       0       0       0       0       
      +0       0       0       0       0
  4344 ;;      Totals:        14       0       0       0       0       0       0       0       0       0       0       0       
      +0       0       0       0       0
  4345 ;;Total ram usage:       14 bytes
  4346 ;; Hardware stack levels used: 1
  4347 ;; Hardware stack levels required when called: 2
  4348 ;; This function calls:
  4349 ;;		Nothing
  4350 ;; This function is called by:
  4351 ;;		_I2C_Master_Mode_Clock_Configurations
  4352 ;;		_ccp1_pwm_set_duty
  4353 ;;		_ccp2_pwm_set_duty
  4354 ;;		_baudrate_calculate
  4355 ;; This function uses a non-reentrant model
  4356 ;;
  4357                           
  4358                           	psect	text23
  4359   0022C4                     __ptext23:
  4360                           	callstack 0
  4361   0022C4                     ___xxtofl:
  4362                           	callstack 25
  4363                           
  4364                           ;incstack = 0
  4365                           ;___xxtofl@sign stored from wreg
  4366   0022C4  6E0A               	movwf	___xxtofl@sign^0,c
  4367   0022C6  500A               	movf	___xxtofl@sign^0,w,c
  4368   0022C8  B4D8               	btfsc	status,2,c
  4369   0022CA  EF69  F011         	goto	u5111
  4370   0022CE  EF6B  F011         	goto	u5110
  4371   0022D2                     u5111:
  4372   0022D2  EF8D  F011         	goto	l2398
  4373   0022D6                     u5110:
  4374   0022D6  BE05               	btfsc	(___xxtofl@val+3)^0,7,c
  4375   0022D8  EF72  F011         	goto	u5120
  4376   0022DC  EF70  F011         	goto	u5121
  4377   0022E0                     u5121:
  4378   0022E0  EF8D  F011         	goto	l2398
  4379   0022E4                     u5120:
  4380   0022E4  C002  F006         	movff	___xxtofl@val,??___xxtofl
  4381   0022E8  C003  F007         	movff	___xxtofl@val+1,??___xxtofl+1
  4382   0022EC  C004  F008         	movff	___xxtofl@val+2,??___xxtofl+2
  4383   0022F0  C005  F009         	movff	___xxtofl@val+3,??___xxtofl+3
  4384   0022F4  1E06               	comf	??___xxtofl^0,f,c
  4385   0022F6  1E07               	comf	(??___xxtofl+1)^0,f,c
  4386   0022F8  1E08               	comf	(??___xxtofl+2)^0,f,c
  4387   0022FA  1E09               	comf	(??___xxtofl+3)^0,f,c
  4388   0022FC  2A06               	incf	??___xxtofl^0,f,c
  4389   0022FE  0E00               	movlw	0
  4390   002300  2207               	addwfc	(??___xxtofl+1)^0,f,c
  4391   002302  2208               	addwfc	(??___xxtofl+2)^0,f,c
  4392   002304  2209               	addwfc	(??___xxtofl+3)^0,f,c
  4393   002306  C006  F00C         	movff	??___xxtofl,___xxtofl@arg
  4394   00230A  C007  F00D         	movff	??___xxtofl+1,___xxtofl@arg+1
  4395   00230E  C008  F00E         	movff	??___xxtofl+2,___xxtofl@arg+2
  4396   002312  C009  F00F         	movff	??___xxtofl+3,___xxtofl@arg+3
  4397   002316  EF95  F011         	goto	l6061
  4398   00231A                     l2398:
  4399   00231A  C002  F00C         	movff	___xxtofl@val,___xxtofl@arg
  4400   00231E  C003  F00D         	movff	___xxtofl@val+1,___xxtofl@arg+1
  4401   002322  C004  F00E         	movff	___xxtofl@val+2,___xxtofl@arg+2
  4402   002326  C005  F00F         	movff	___xxtofl@val+3,___xxtofl@arg+3
  4403   00232A                     l6061:
  4404   00232A  5002               	movf	___xxtofl@val^0,w,c
  4405   00232C  1003               	iorwf	(___xxtofl@val+1)^0,w,c
  4406   00232E  1004               	iorwf	(___xxtofl@val+2)^0,w,c
  4407   002330  1005               	iorwf	(___xxtofl@val+3)^0,w,c
  4408   002332  A4D8               	btfss	status,2,c
  4409   002334  EF9E  F011         	goto	u5131
  4410   002338  EFA0  F011         	goto	u5130
  4411   00233C                     u5131:
  4412   00233C  EFAA  F011         	goto	l6067
  4413   002340                     u5130:
  4414   002340  0E00               	movlw	0
  4415   002342  6E02               	movwf	?___xxtofl^0,c
  4416   002344  0E00               	movlw	0
  4417   002346  6E03               	movwf	(?___xxtofl+1)^0,c
  4418   002348  0E00               	movlw	0
  4419   00234A  6E04               	movwf	(?___xxtofl+2)^0,c
  4420   00234C  0E00               	movlw	0
  4421   00234E  6E05               	movwf	(?___xxtofl+3)^0,c
  4422   002350  EF3B  F012         	goto	l2401
  4423   002354                     l6067:
  4424   002354  0E96               	movlw	150
  4425   002356  6E0B               	movwf	___xxtofl@exp^0,c
  4426   002358  EFB4  F011         	goto	l6071
  4427   00235C                     l6069:
  4428   00235C  2A0B               	incf	___xxtofl@exp^0,f,c
  4429   00235E  90D8               	bcf	status,0,c
  4430   002360  320F               	rrcf	(___xxtofl@arg+3)^0,f,c
  4431   002362  320E               	rrcf	(___xxtofl@arg+2)^0,f,c
  4432   002364  320D               	rrcf	(___xxtofl@arg+1)^0,f,c
  4433   002366  320C               	rrcf	___xxtofl@arg^0,f,c
  4434   002368                     l6071:
  4435   002368  0E00               	movlw	0
  4436   00236A  140C               	andwf	___xxtofl@arg^0,w,c
  4437   00236C  6E06               	movwf	??___xxtofl^0,c
  4438   00236E  0E00               	movlw	0
  4439   002370  140D               	andwf	(___xxtofl@arg+1)^0,w,c
  4440   002372  6E07               	movwf	(??___xxtofl+1)^0,c
  4441   002374  0E00               	movlw	0
  4442   002376  140E               	andwf	(___xxtofl@arg+2)^0,w,c
  4443   002378  6E08               	movwf	(??___xxtofl+2)^0,c
  4444   00237A  0EFE               	movlw	254
  4445   00237C  140F               	andwf	(___xxtofl@arg+3)^0,w,c
  4446   00237E  6E09               	movwf	(??___xxtofl+3)^0,c
  4447   002380  5006               	movf	??___xxtofl^0,w,c
  4448   002382  1007               	iorwf	(??___xxtofl+1)^0,w,c
  4449   002384  1008               	iorwf	(??___xxtofl+2)^0,w,c
  4450   002386  1009               	iorwf	(??___xxtofl+3)^0,w,c
  4451   002388  A4D8               	btfss	status,2,c
  4452   00238A  EFC9  F011         	goto	u5141
  4453   00238E  EFCB  F011         	goto	u5140
  4454   002392                     u5141:
  4455   002392  EFAE  F011         	goto	l6069
  4456   002396                     u5140:
  4457   002396  EFD9  F011         	goto	l2405
  4458   00239A                     l6073:
  4459   00239A  2A0B               	incf	___xxtofl@exp^0,f,c
  4460   00239C  0E01               	movlw	1
  4461   00239E  260C               	addwf	___xxtofl@arg^0,f,c
  4462   0023A0  0E00               	movlw	0
  4463   0023A2  220D               	addwfc	(___xxtofl@arg+1)^0,f,c
  4464   0023A4  220E               	addwfc	(___xxtofl@arg+2)^0,f,c
  4465   0023A6  220F               	addwfc	(___xxtofl@arg+3)^0,f,c
  4466   0023A8  90D8               	bcf	status,0,c
  4467   0023AA  320F               	rrcf	(___xxtofl@arg+3)^0,f,c
  4468   0023AC  320E               	rrcf	(___xxtofl@arg+2)^0,f,c
  4469   0023AE  320D               	rrcf	(___xxtofl@arg+1)^0,f,c
  4470   0023B0  320C               	rrcf	___xxtofl@arg^0,f,c
  4471   0023B2                     l2405:
  4472   0023B2  0E00               	movlw	0
  4473   0023B4  140C               	andwf	___xxtofl@arg^0,w,c
  4474   0023B6  6E06               	movwf	??___xxtofl^0,c
  4475   0023B8  0E00               	movlw	0
  4476   0023BA  140D               	andwf	(___xxtofl@arg+1)^0,w,c
  4477   0023BC  6E07               	movwf	(??___xxtofl+1)^0,c
  4478   0023BE  0E00               	movlw	0
  4479   0023C0  140E               	andwf	(___xxtofl@arg+2)^0,w,c
  4480   0023C2  6E08               	movwf	(??___xxtofl+2)^0,c
  4481   0023C4  0EFF               	movlw	255
  4482   0023C6  140F               	andwf	(___xxtofl@arg+3)^0,w,c
  4483   0023C8  6E09               	movwf	(??___xxtofl+3)^0,c
  4484   0023CA  5006               	movf	??___xxtofl^0,w,c
  4485   0023CC  1007               	iorwf	(??___xxtofl+1)^0,w,c
  4486   0023CE  1008               	iorwf	(??___xxtofl+2)^0,w,c
  4487   0023D0  1009               	iorwf	(??___xxtofl+3)^0,w,c
  4488   0023D2  A4D8               	btfss	status,2,c
  4489   0023D4  EFEE  F011         	goto	u5151
  4490   0023D8  EFF0  F011         	goto	u5150
  4491   0023DC                     u5151:
  4492   0023DC  EFCD  F011         	goto	l6073
  4493   0023E0                     u5150:
  4494   0023E0  EFF8  F011         	goto	l6081
  4495   0023E4                     l6079:
  4496   0023E4  060B               	decf	___xxtofl@exp^0,f,c
  4497   0023E6  90D8               	bcf	status,0,c
  4498   0023E8  360C               	rlcf	___xxtofl@arg^0,f,c
  4499   0023EA  360D               	rlcf	(___xxtofl@arg+1)^0,f,c
  4500   0023EC  360E               	rlcf	(___xxtofl@arg+2)^0,f,c
  4501   0023EE  360F               	rlcf	(___xxtofl@arg+3)^0,f,c
  4502   0023F0                     l6081:
  4503   0023F0  BE0E               	btfsc	(___xxtofl@arg+2)^0,7,c
  4504   0023F2  EFFD  F011         	goto	u5161
  4505   0023F6  EFFF  F011         	goto	u5160
  4506   0023FA                     u5161:
  4507   0023FA  EF07  F012         	goto	l2412
  4508   0023FE                     u5160:
  4509   0023FE  0E02               	movlw	2
  4510   002400  600B               	cpfslt	___xxtofl@exp^0,c
  4511   002402  EF05  F012         	goto	u5171
  4512   002406  EF07  F012         	goto	u5170
  4513   00240A                     u5171:
  4514   00240A  EFF2  F011         	goto	l6079
  4515   00240E                     u5170:
  4516   00240E                     l2412:
  4517   00240E  B00B               	btfsc	___xxtofl@exp^0,0,c
  4518   002410  EF0C  F012         	goto	u5181
  4519   002414  EF0E  F012         	goto	u5180
  4520   002418                     u5181:
  4521   002418  EF0F  F012         	goto	l6087
  4522   00241C                     u5180:
  4523   00241C  9E0E               	bcf	(___xxtofl@arg+2)^0,7,c
  4524   00241E                     l6087:
  4525   00241E  90D8               	bcf	status,0,c
  4526   002420  320B               	rrcf	___xxtofl@exp^0,f,c
  4527   002422  C00B  F006         	movff	___xxtofl@exp,??___xxtofl
  4528   002426  6A07               	clrf	(??___xxtofl+1)^0,c
  4529   002428  6A08               	clrf	(??___xxtofl+2)^0,c
  4530   00242A  6A09               	clrf	(??___xxtofl+3)^0,c
  4531   00242C  C006  F009         	movff	??___xxtofl,??___xxtofl+3
  4532   002430  6A08               	clrf	(??___xxtofl+2)^0,c
  4533   002432  6A07               	clrf	(??___xxtofl+1)^0,c
  4534   002434  6A06               	clrf	??___xxtofl^0,c
  4535   002436  5006               	movf	??___xxtofl^0,w,c
  4536   002438  120C               	iorwf	___xxtofl@arg^0,f,c
  4537   00243A  5007               	movf	(??___xxtofl+1)^0,w,c
  4538   00243C  120D               	iorwf	(___xxtofl@arg+1)^0,f,c
  4539   00243E  5008               	movf	(??___xxtofl+2)^0,w,c
  4540   002440  120E               	iorwf	(___xxtofl@arg+2)^0,f,c
  4541   002442  5009               	movf	(??___xxtofl+3)^0,w,c
  4542   002444  120F               	iorwf	(___xxtofl@arg+3)^0,f,c
  4543   002446  500A               	movf	___xxtofl@sign^0,w,c
  4544   002448  B4D8               	btfsc	status,2,c
  4545   00244A  EF29  F012         	goto	u5191
  4546   00244E  EF2B  F012         	goto	u5190
  4547   002452                     u5191:
  4548   002452  EF33  F012         	goto	l6097
  4549   002456                     u5190:
  4550   002456  BE05               	btfsc	(___xxtofl@val+3)^0,7,c
  4551   002458  EF32  F012         	goto	u5200
  4552   00245C  EF30  F012         	goto	u5201
  4553   002460                     u5201:
  4554   002460  EF33  F012         	goto	l6097
  4555   002464                     u5200:
  4556   002464  8E0F               	bsf	(___xxtofl@arg+3)^0,7,c
  4557   002466                     l6097:
  4558   002466  C00C  F002         	movff	___xxtofl@arg,?___xxtofl
  4559   00246A  C00D  F003         	movff	___xxtofl@arg+1,?___xxtofl+1
  4560   00246E  C00E  F004         	movff	___xxtofl@arg+2,?___xxtofl+2
  4561   002472  C00F  F005         	movff	___xxtofl@arg+3,?___xxtofl+3
  4562   002476                     l2401:
  4563   002476  0012               	return		;funcret
  4564   002478                     __end_of___xxtofl:
  4565                           	callstack 0
  4566                           
  4567 ;; *************** function ___fltol *****************
  4568 ;; Defined at:
  4569 ;;		line 43 in file "C:\Program Files\Microchip\xc8\v2.45\pic\sources\c99\common\fltol.c"
  4570 ;; Parameters:    Size  Location     Type
  4571 ;;  f1              4   56[COMRAM] unsigned char 
  4572 ;; Auto vars:     Size  Location     Type
  4573 ;;  exp1            1   65[COMRAM] unsigned char 
  4574 ;;  sign1           1   64[COMRAM] unsigned char 
  4575 ;; Return value:  Size  Location     Type
  4576 ;;                  4   56[COMRAM] long 
  4577 ;; Registers used:
  4578 ;;		wreg, status,2, status,0
  4579 ;; Tracked objects:
  4580 ;;		On entry : 0/0
  4581 ;;		On exit  : 0/0
  4582 ;;		Unchanged: 0/0
  4583 ;; Data sizes:     COMRAM   BANK0   BANK1   BANK2   BANK3   BANK4   BANK5   BANK6   BANK7   BANK8   BANK9  BANK10  BANK1
      +1  BANK12  BANK13  BANK14  BANK15
  4584 ;;      Params:         4       0       0       0       0       0       0       0       0       0       0       0       
      +0       0       0       0       0
  4585 ;;      Locals:         2       0       0       0       0       0       0       0       0       0       0       0       
      +0       0       0       0       0
  4586 ;;      Temps:          4       0       0       0       0       0       0       0       0       0       0       0       
      +0       0       0       0       0
  4587 ;;      Totals:        10       0       0       0       0       0       0       0       0       0       0       0       
      +0       0       0       0       0
  4588 ;;Total ram usage:       10 bytes
  4589 ;; Hardware stack levels used: 1
  4590 ;; Hardware stack levels required when called: 2
  4591 ;; This function calls:
  4592 ;;		Nothing
  4593 ;; This function is called by:
  4594 ;;		_I2C_Master_Mode_Clock_Configurations
  4595 ;;		_ccp1_pwm_set_duty
  4596 ;;		_ccp2_pwm_set_duty
  4597 ;;		_baudrate_calculate
  4598 ;; This function uses a non-reentrant model
  4599 ;;
  4600                           
  4601                           	psect	text24
  4602   0027DE                     __ptext24:
  4603                           	callstack 0
  4604   0027DE                     ___fltol:
  4605                           	callstack 25
  4606   0027DE  343B               	rlcf	(___fltol@f1+2)^0,w,c
  4607   0027E0  343C               	rlcf	(___fltol@f1+3)^0,w,c
  4608   0027E2  6E42               	movwf	___fltol@exp1^0,c
  4609   0027E4  5042               	movf	___fltol@exp1^0,w,c
  4610   0027E6  A4D8               	btfss	status,2,c
  4611   0027E8  EFF8  F013         	goto	u5041
  4612   0027EC  EFFA  F013         	goto	u5040
  4613   0027F0                     u5041:
  4614   0027F0  EF04  F014         	goto	l6017
  4615   0027F4                     u5040:
  4616   0027F4                     l6013:
  4617   0027F4  0E00               	movlw	0
  4618   0027F6  6E39               	movwf	?___fltol^0,c
  4619   0027F8  0E00               	movlw	0
  4620   0027FA  6E3A               	movwf	(?___fltol+1)^0,c
  4621   0027FC  0E00               	movlw	0
  4622   0027FE  6E3B               	movwf	(?___fltol+2)^0,c
  4623   002800  0E00               	movlw	0
  4624   002802  6E3C               	movwf	(?___fltol+3)^0,c
  4625   002804  EF71  F014         	goto	l2040
  4626   002808                     l6017:
  4627   002808  C039  F03D         	movff	___fltol@f1,??___fltol
  4628   00280C  C03A  F03E         	movff	___fltol@f1+1,??___fltol+1
  4629   002810  C03B  F03F         	movff	___fltol@f1+2,??___fltol+2
  4630   002814  C03C  F040         	movff	___fltol@f1+3,??___fltol+3
  4631   002818  0E20               	movlw	32
  4632   00281A  EF14  F014         	goto	u5050
  4633   00281E                     u5055:
  4634   00281E  90D8               	bcf	status,0,c
  4635   002820  3240               	rrcf	(??___fltol+3)^0,f,c
  4636   002822  323F               	rrcf	(??___fltol+2)^0,f,c
  4637   002824  323E               	rrcf	(??___fltol+1)^0,f,c
  4638   002826  323D               	rrcf	??___fltol^0,f,c
  4639   002828                     u5050:
  4640   002828  2EE8               	decfsz	wreg,f,c
  4641   00282A  EF0F  F014         	goto	u5055
  4642   00282E  503D               	movf	??___fltol^0,w,c
  4643   002830  6E41               	movwf	___fltol@sign1^0,c
  4644   002832  8E3B               	bsf	(___fltol@f1+2)^0,7,c
  4645   002834  0EFF               	movlw	255
  4646   002836  1639               	andwf	___fltol@f1^0,f,c
  4647   002838  0EFF               	movlw	255
  4648   00283A  163A               	andwf	(___fltol@f1+1)^0,f,c
  4649   00283C  0EFF               	movlw	255
  4650   00283E  163B               	andwf	(___fltol@f1+2)^0,f,c
  4651   002840  0E00               	movlw	0
  4652   002842  163C               	andwf	(___fltol@f1+3)^0,f,c
  4653   002844  0E96               	movlw	150
  4654   002846  5E42               	subwf	___fltol@exp1^0,f,c
  4655   002848  BE42               	btfsc	___fltol@exp1^0,7,c
  4656   00284A  EF2B  F014         	goto	u5060
  4657   00284E  EF29  F014         	goto	u5061
  4658   002852                     u5061:
  4659   002852  EF41  F014         	goto	l6037
  4660   002856                     u5060:
  4661   002856  5042               	movf	___fltol@exp1^0,w,c
  4662   002858  0A80               	xorlw	128
  4663   00285A  0F97               	addlw	151
  4664   00285C  B0D8               	btfsc	status,0,c
  4665   00285E  EF33  F014         	goto	u5071
  4666   002862  EF35  F014         	goto	u5070
  4667   002866                     u5071:
  4668   002866  EF37  F014         	goto	l6033
  4669   00286A                     u5070:
  4670   00286A  EFFA  F013         	goto	l6013
  4671   00286E                     l6033:
  4672   00286E  90D8               	bcf	status,0,c
  4673   002870  323C               	rrcf	(___fltol@f1+3)^0,f,c
  4674   002872  323B               	rrcf	(___fltol@f1+2)^0,f,c
  4675   002874  323A               	rrcf	(___fltol@f1+1)^0,f,c
  4676   002876  3239               	rrcf	___fltol@f1^0,f,c
  4677   002878  3E42               	incfsz	___fltol@exp1^0,f,c
  4678   00287A  EF37  F014         	goto	l6033
  4679   00287E  EF59  F014         	goto	l6047
  4680   002882                     l6037:
  4681   002882  0E1F               	movlw	31
  4682   002884  6442               	cpfsgt	___fltol@exp1^0,c
  4683   002886  EF47  F014         	goto	u5081
  4684   00288A  EF49  F014         	goto	u5080
  4685   00288E                     u5081:
  4686   00288E  EF51  F014         	goto	l6045
  4687   002892                     u5080:
  4688   002892  EFFA  F013         	goto	l6013
  4689   002896                     l6043:
  4690   002896  90D8               	bcf	status,0,c
  4691   002898  3639               	rlcf	___fltol@f1^0,f,c
  4692   00289A  363A               	rlcf	(___fltol@f1+1)^0,f,c
  4693   00289C  363B               	rlcf	(___fltol@f1+2)^0,f,c
  4694   00289E  363C               	rlcf	(___fltol@f1+3)^0,f,c
  4695   0028A0  0642               	decf	___fltol@exp1^0,f,c
  4696   0028A2                     l6045:
  4697   0028A2  5042               	movf	___fltol@exp1^0,w,c
  4698   0028A4  A4D8               	btfss	status,2,c
  4699   0028A6  EF57  F014         	goto	u5091
  4700   0028AA  EF59  F014         	goto	u5090
  4701   0028AE                     u5091:
  4702   0028AE  EF4B  F014         	goto	l6043
  4703   0028B2                     u5090:
  4704   0028B2                     l6047:
  4705   0028B2  5041               	movf	___fltol@sign1^0,w,c
  4706   0028B4  B4D8               	btfsc	status,2,c
  4707   0028B6  EF5F  F014         	goto	u5101
  4708   0028BA  EF61  F014         	goto	u5100
  4709   0028BE                     u5101:
  4710   0028BE  EF69  F014         	goto	l6051
  4711   0028C2                     u5100:
  4712   0028C2  1E3C               	comf	(___fltol@f1+3)^0,f,c
  4713   0028C4  1E3B               	comf	(___fltol@f1+2)^0,f,c
  4714   0028C6  1E3A               	comf	(___fltol@f1+1)^0,f,c
  4715   0028C8  6C39               	negf	___fltol@f1^0,c
  4716   0028CA  0E00               	movlw	0
  4717   0028CC  223A               	addwfc	(___fltol@f1+1)^0,f,c
  4718   0028CE  223B               	addwfc	(___fltol@f1+2)^0,f,c
  4719   0028D0  223C               	addwfc	(___fltol@f1+3)^0,f,c
  4720   0028D2                     l6051:
  4721   0028D2  C039  F039         	movff	___fltol@f1,?___fltol
  4722   0028D6  C03A  F03A         	movff	___fltol@f1+1,?___fltol+1
  4723   0028DA  C03B  F03B         	movff	___fltol@f1+2,?___fltol+2
  4724   0028DE  C03C  F03C         	movff	___fltol@f1+3,?___fltol+3
  4725   0028E2                     l2040:
  4726   0028E2  0012               	return		;funcret
  4727   0028E4                     __end_of___fltol:
  4728                           	callstack 0
  4729                           
  4730 ;; *************** function ___fldiv *****************
  4731 ;; Defined at:
  4732 ;;		line 11 in file "C:\Program Files\Microchip\xc8\v2.45\pic\sources\c99\common\sprcdiv.c"
  4733 ;; Parameters:    Size  Location     Type
  4734 ;;  b               4   15[COMRAM] long 
  4735 ;;  a               4   19[COMRAM] long 
  4736 ;; Auto vars:     Size  Location     Type
  4737 ;;  grs             4   34[COMRAM] unsigned long 
  4738 ;;  rem             4   27[COMRAM] unsigned long 
  4739 ;;  new_exp         2   32[COMRAM] short 
  4740 ;;  aexp            1   39[COMRAM] unsigned char 
  4741 ;;  bexp            1   38[COMRAM] unsigned char 
  4742 ;;  sign            1   31[COMRAM] unsigned char 
  4743 ;; Return value:  Size  Location     Type
  4744 ;;                  4   15[COMRAM] unsigned char 
  4745 ;; Registers used:
  4746 ;;		wreg, status,2, status,0
  4747 ;; Tracked objects:
  4748 ;;		On entry : 0/0
  4749 ;;		On exit  : 0/0
  4750 ;;		Unchanged: 0/0
  4751 ;; Data sizes:     COMRAM   BANK0   BANK1   BANK2   BANK3   BANK4   BANK5   BANK6   BANK7   BANK8   BANK9  BANK10  BANK1
      +1  BANK12  BANK13  BANK14  BANK15
  4752 ;;      Params:         8       0       0       0       0       0       0       0       0       0       0       0       
      +0       0       0       0       0
  4753 ;;      Locals:        13       0       0       0       0       0       0       0       0       0       0       0       
      +0       0       0       0       0
  4754 ;;      Temps:          4       0       0       0       0       0       0       0       0       0       0       0       
      +0       0       0       0       0
  4755 ;;      Totals:        25       0       0       0       0       0       0       0       0       0       0       0       
      +0       0       0       0       0
  4756 ;;Total ram usage:       25 bytes
  4757 ;; Hardware stack levels used: 1
  4758 ;; Hardware stack levels required when called: 2
  4759 ;; This function calls:
  4760 ;;		Nothing
  4761 ;; This function is called by:
  4762 ;;		_I2C_Master_Mode_Clock_Configurations
  4763 ;;		_ccp1_pwm_set_duty
  4764 ;;		_ccp2_pwm_set_duty
  4765 ;;		_baudrate_calculate
  4766 ;; This function uses a non-reentrant model
  4767 ;;
  4768                           
  4769                           	psect	text25
  4770   001F2A                     __ptext25:
  4771                           	callstack 0
  4772   001F2A                     ___fldiv:
  4773                           	callstack 25
  4774   001F2A  5013               	movf	(___fldiv@b+3)^0,w,c
  4775   001F2C  0B80               	andlw	128
  4776   001F2E  6E20               	movwf	___fldiv@sign^0,c
  4777   001F30  5013               	movf	(___fldiv@b+3)^0,w,c
  4778   001F32  2413               	addwf	(___fldiv@b+3)^0,w,c
  4779   001F34  6E27               	movwf	___fldiv@bexp^0,c
  4780   001F36  AE12               	btfss	(___fldiv@b+2)^0,7,c
  4781   001F38  EFA0  F00F         	goto	u4811
  4782   001F3C  EFA2  F00F         	goto	u4810
  4783   001F40                     u4811:
  4784   001F40  EFA3  F00F         	goto	l5879
  4785   001F44                     u4810:
  4786   001F44  8027               	bsf	___fldiv@bexp^0,0,c
  4787   001F46                     l5879:
  4788   001F46  5027               	movf	___fldiv@bexp^0,w,c
  4789   001F48  B4D8               	btfsc	status,2,c
  4790   001F4A  EFA9  F00F         	goto	u4821
  4791   001F4E  EFAB  F00F         	goto	u4820
  4792   001F52                     u4821:
  4793   001F52  EFC0  F00F         	goto	l5889
  4794   001F56                     u4820:
  4795   001F56  2827               	incf	___fldiv@bexp^0,w,c
  4796   001F58  A4D8               	btfss	status,2,c
  4797   001F5A  EFB1  F00F         	goto	u4831
  4798   001F5E  EFB3  F00F         	goto	u4830
  4799   001F62                     u4831:
  4800   001F62  EFBB  F00F         	goto	l5885
  4801   001F66                     u4830:
  4802   001F66  0E00               	movlw	0
  4803   001F68  6E10               	movwf	___fldiv@b^0,c
  4804   001F6A  0E00               	movlw	0
  4805   001F6C  6E11               	movwf	(___fldiv@b+1)^0,c
  4806   001F6E  0E00               	movlw	0
  4807   001F70  6E12               	movwf	(___fldiv@b+2)^0,c
  4808   001F72  0E00               	movlw	0
  4809   001F74  6E13               	movwf	(___fldiv@b+3)^0,c
  4810   001F76                     l5885:
  4811   001F76  8E12               	bsf	(___fldiv@b+2)^0,7,c
  4812   001F78  0E00               	movlw	0
  4813   001F7A  6E13               	movwf	(___fldiv@b+3)^0,c
  4814   001F7C  EFC8  F00F         	goto	l5891
  4815   001F80                     l5889:
  4816   001F80  0E00               	movlw	0
  4817   001F82  6E10               	movwf	___fldiv@b^0,c
  4818   001F84  0E00               	movlw	0
  4819   001F86  6E11               	movwf	(___fldiv@b+1)^0,c
  4820   001F88  0E00               	movlw	0
  4821   001F8A  6E12               	movwf	(___fldiv@b+2)^0,c
  4822   001F8C  0E00               	movlw	0
  4823   001F8E  6E13               	movwf	(___fldiv@b+3)^0,c
  4824   001F90                     l5891:
  4825   001F90  5017               	movf	(___fldiv@a+3)^0,w,c
  4826   001F92  0B80               	andlw	128
  4827   001F94  1A20               	xorwf	___fldiv@sign^0,f,c
  4828   001F96  5017               	movf	(___fldiv@a+3)^0,w,c
  4829   001F98  2417               	addwf	(___fldiv@a+3)^0,w,c
  4830   001F9A  6E28               	movwf	___fldiv@aexp^0,c
  4831   001F9C  AE16               	btfss	(___fldiv@a+2)^0,7,c
  4832   001F9E  EFD3  F00F         	goto	u4841
  4833   001FA2  EFD5  F00F         	goto	u4840
  4834   001FA6                     u4841:
  4835   001FA6  EFD6  F00F         	goto	l5899
  4836   001FAA                     u4840:
  4837   001FAA  8028               	bsf	___fldiv@aexp^0,0,c
  4838   001FAC                     l5899:
  4839   001FAC  5028               	movf	___fldiv@aexp^0,w,c
  4840   001FAE  B4D8               	btfsc	status,2,c
  4841   001FB0  EFDC  F00F         	goto	u4851
  4842   001FB4  EFDE  F00F         	goto	u4850
  4843   001FB8                     u4851:
  4844   001FB8  EFF3  F00F         	goto	l5909
  4845   001FBC                     u4850:
  4846   001FBC  2828               	incf	___fldiv@aexp^0,w,c
  4847   001FBE  A4D8               	btfss	status,2,c
  4848   001FC0  EFE4  F00F         	goto	u4861
  4849   001FC4  EFE6  F00F         	goto	u4860
  4850   001FC8                     u4861:
  4851   001FC8  EFEE  F00F         	goto	l5905
  4852   001FCC                     u4860:
  4853   001FCC  0E00               	movlw	0
  4854   001FCE  6E14               	movwf	___fldiv@a^0,c
  4855   001FD0  0E00               	movlw	0
  4856   001FD2  6E15               	movwf	(___fldiv@a+1)^0,c
  4857   001FD4  0E00               	movlw	0
  4858   001FD6  6E16               	movwf	(___fldiv@a+2)^0,c
  4859   001FD8  0E00               	movlw	0
  4860   001FDA  6E17               	movwf	(___fldiv@a+3)^0,c
  4861   001FDC                     l5905:
  4862   001FDC  8E16               	bsf	(___fldiv@a+2)^0,7,c
  4863   001FDE  0E00               	movlw	0
  4864   001FE0  6E17               	movwf	(___fldiv@a+3)^0,c
  4865   001FE2  EFFB  F00F         	goto	l5911
  4866   001FE6                     l5909:
  4867   001FE6  0E00               	movlw	0
  4868   001FE8  6E14               	movwf	___fldiv@a^0,c
  4869   001FEA  0E00               	movlw	0
  4870   001FEC  6E15               	movwf	(___fldiv@a+1)^0,c
  4871   001FEE  0E00               	movlw	0
  4872   001FF0  6E16               	movwf	(___fldiv@a+2)^0,c
  4873   001FF2  0E00               	movlw	0
  4874   001FF4  6E17               	movwf	(___fldiv@a+3)^0,c
  4875   001FF6                     l5911:
  4876   001FF6  5014               	movf	___fldiv@a^0,w,c
  4877   001FF8  1015               	iorwf	(___fldiv@a+1)^0,w,c
  4878   001FFA  1016               	iorwf	(___fldiv@a+2)^0,w,c
  4879   001FFC  1017               	iorwf	(___fldiv@a+3)^0,w,c
  4880   001FFE  A4D8               	btfss	status,2,c
  4881   002000  EF04  F010         	goto	u4871
  4882   002004  EF06  F010         	goto	u4870
  4883   002008                     u4871:
  4884   002008  EF1E  F010         	goto	l5923
  4885   00200C                     u4870:
  4886   00200C  0E00               	movlw	0
  4887   00200E  6E10               	movwf	___fldiv@b^0,c
  4888   002010  0E00               	movlw	0
  4889   002012  6E11               	movwf	(___fldiv@b+1)^0,c
  4890   002014  0E00               	movlw	0
  4891   002016  6E12               	movwf	(___fldiv@b+2)^0,c
  4892   002018  0E00               	movlw	0
  4893   00201A  6E13               	movwf	(___fldiv@b+3)^0,c
  4894   00201C  0E80               	movlw	128
  4895   00201E  1212               	iorwf	(___fldiv@b+2)^0,f,c
  4896   002020  0E7F               	movlw	127
  4897   002022  1213               	iorwf	(___fldiv@b+3)^0,f,c
  4898   002024                     l5917:
  4899   002024  5020               	movf	___fldiv@sign^0,w,c
  4900   002026  1213               	iorwf	(___fldiv@b+3)^0,f,c
  4901   002028  C010  F010         	movff	___fldiv@b,?___fldiv
  4902   00202C  C011  F011         	movff	___fldiv@b+1,?___fldiv+1
  4903   002030  C012  F012         	movff	___fldiv@b+2,?___fldiv+2
  4904   002034  C013  F013         	movff	___fldiv@b+3,?___fldiv+3
  4905   002038  EF61  F011         	goto	l2325
  4906   00203C                     l5923:
  4907   00203C  5027               	movf	___fldiv@bexp^0,w,c
  4908   00203E  A4D8               	btfss	status,2,c
  4909   002040  EF24  F010         	goto	u4881
  4910   002044  EF26  F010         	goto	u4880
  4911   002048                     u4881:
  4912   002048  EF30  F010         	goto	l5931
  4913   00204C                     u4880:
  4914   00204C  0E00               	movlw	0
  4915   00204E  6E10               	movwf	?___fldiv^0,c
  4916   002050  0E00               	movlw	0
  4917   002052  6E11               	movwf	(?___fldiv+1)^0,c
  4918   002054  0E00               	movlw	0
  4919   002056  6E12               	movwf	(?___fldiv+2)^0,c
  4920   002058  0E00               	movlw	0
  4921   00205A  6E13               	movwf	(?___fldiv+3)^0,c
  4922   00205C  EF61  F011         	goto	l2325
  4923   002060                     l5931:
  4924   002060  5028               	movf	___fldiv@aexp^0,w,c
  4925   002062  C027  F018         	movff	___fldiv@bexp,??___fldiv
  4926   002066  6A19               	clrf	(??___fldiv+1)^0,c
  4927   002068  5E18               	subwf	??___fldiv^0,f,c
  4928   00206A  0E00               	movlw	0
  4929   00206C  5A19               	subwfb	(??___fldiv+1)^0,f,c
  4930   00206E  0E7F               	movlw	127
  4931   002070  2418               	addwf	??___fldiv^0,w,c
  4932   002072  6E21               	movwf	___fldiv@new_exp^0,c
  4933   002074  0E00               	movlw	0
  4934   002076  2019               	addwfc	(??___fldiv+1)^0,w,c
  4935   002078  6E22               	movwf	(___fldiv@new_exp+1)^0,c
  4936   00207A  C010  F01C         	movff	___fldiv@b,___fldiv@rem
  4937   00207E  C011  F01D         	movff	___fldiv@b+1,___fldiv@rem+1
  4938   002082  C012  F01E         	movff	___fldiv@b+2,___fldiv@rem+2
  4939   002086  C013  F01F         	movff	___fldiv@b+3,___fldiv@rem+3
  4940   00208A  0E00               	movlw	0
  4941   00208C  6E10               	movwf	___fldiv@b^0,c
  4942   00208E  0E00               	movlw	0
  4943   002090  6E11               	movwf	(___fldiv@b+1)^0,c
  4944   002092  0E00               	movlw	0
  4945   002094  6E12               	movwf	(___fldiv@b+2)^0,c
  4946   002096  0E00               	movlw	0
  4947   002098  6E13               	movwf	(___fldiv@b+3)^0,c
  4948   00209A  0E00               	movlw	0
  4949   00209C  6E23               	movwf	___fldiv@grs^0,c
  4950   00209E  0E00               	movlw	0
  4951   0020A0  6E24               	movwf	(___fldiv@grs+1)^0,c
  4952   0020A2  0E00               	movlw	0
  4953   0020A4  6E25               	movwf	(___fldiv@grs+2)^0,c
  4954   0020A6  0E00               	movlw	0
  4955   0020A8  6E26               	movwf	(___fldiv@grs+3)^0,c
  4956   0020AA  0E00               	movlw	0
  4957   0020AC  6E28               	movwf	___fldiv@aexp^0,c
  4958   0020AE  EF91  F010         	goto	l2327
  4959   0020B2                     l5941:
  4960   0020B2  5028               	movf	___fldiv@aexp^0,w,c
  4961   0020B4  B4D8               	btfsc	status,2,c
  4962   0020B6  EF5F  F010         	goto	u4891
  4963   0020BA  EF61  F010         	goto	u4890
  4964   0020BE                     u4891:
  4965   0020BE  EF78  F010         	goto	l5949
  4966   0020C2                     u4890:
  4967   0020C2  90D8               	bcf	status,0,c
  4968   0020C4  361C               	rlcf	___fldiv@rem^0,f,c
  4969   0020C6  361D               	rlcf	(___fldiv@rem+1)^0,f,c
  4970   0020C8  361E               	rlcf	(___fldiv@rem+2)^0,f,c
  4971   0020CA  361F               	rlcf	(___fldiv@rem+3)^0,f,c
  4972   0020CC  90D8               	bcf	status,0,c
  4973   0020CE  3610               	rlcf	___fldiv@b^0,f,c
  4974   0020D0  3611               	rlcf	(___fldiv@b+1)^0,f,c
  4975   0020D2  3612               	rlcf	(___fldiv@b+2)^0,f,c
  4976   0020D4  3613               	rlcf	(___fldiv@b+3)^0,f,c
  4977   0020D6  AE26               	btfss	(___fldiv@grs+3)^0,7,c
  4978   0020D8  EF70  F010         	goto	u4901
  4979   0020DC  EF72  F010         	goto	u4900
  4980   0020E0                     u4901:
  4981   0020E0  EF73  F010         	goto	l2330
  4982   0020E4                     u4900:
  4983   0020E4  8010               	bsf	___fldiv@b^0,0,c
  4984   0020E6                     l2330:
  4985   0020E6  90D8               	bcf	status,0,c
  4986   0020E8  3623               	rlcf	___fldiv@grs^0,f,c
  4987   0020EA  3624               	rlcf	(___fldiv@grs+1)^0,f,c
  4988   0020EC  3625               	rlcf	(___fldiv@grs+2)^0,f,c
  4989   0020EE  3626               	rlcf	(___fldiv@grs+3)^0,f,c
  4990   0020F0                     l5949:
  4991   0020F0  5014               	movf	___fldiv@a^0,w,c
  4992   0020F2  5C1C               	subwf	___fldiv@rem^0,w,c
  4993   0020F4  5015               	movf	(___fldiv@a+1)^0,w,c
  4994   0020F6  581D               	subwfb	(___fldiv@rem+1)^0,w,c
  4995   0020F8  5016               	movf	(___fldiv@a+2)^0,w,c
  4996   0020FA  581E               	subwfb	(___fldiv@rem+2)^0,w,c
  4997   0020FC  5017               	movf	(___fldiv@a+3)^0,w,c
  4998   0020FE  581F               	subwfb	(___fldiv@rem+3)^0,w,c
  4999   002100  A0D8               	btfss	status,0,c
  5000   002102  EF85  F010         	goto	u4911
  5001   002106  EF87  F010         	goto	u4910
  5002   00210A                     u4911:
  5003   00210A  EF90  F010         	goto	l5955
  5004   00210E                     u4910:
  5005   00210E  8C26               	bsf	(___fldiv@grs+3)^0,6,c
  5006   002110  5014               	movf	___fldiv@a^0,w,c
  5007   002112  5E1C               	subwf	___fldiv@rem^0,f,c
  5008   002114  5015               	movf	(___fldiv@a+1)^0,w,c
  5009   002116  5A1D               	subwfb	(___fldiv@rem+1)^0,f,c
  5010   002118  5016               	movf	(___fldiv@a+2)^0,w,c
  5011   00211A  5A1E               	subwfb	(___fldiv@rem+2)^0,f,c
  5012   00211C  5017               	movf	(___fldiv@a+3)^0,w,c
  5013   00211E  5A1F               	subwfb	(___fldiv@rem+3)^0,f,c
  5014   002120                     l5955:
  5015   002120  2A28               	incf	___fldiv@aexp^0,f,c
  5016   002122                     l2327:
  5017   002122  0E19               	movlw	25
  5018   002124  6428               	cpfsgt	___fldiv@aexp^0,c
  5019   002126  EF97  F010         	goto	u4921
  5020   00212A  EF99  F010         	goto	u4920
  5021   00212E                     u4921:
  5022   00212E  EF59  F010         	goto	l5941
  5023   002132                     u4920:
  5024   002132  501C               	movf	___fldiv@rem^0,w,c
  5025   002134  101D               	iorwf	(___fldiv@rem+1)^0,w,c
  5026   002136  101E               	iorwf	(___fldiv@rem+2)^0,w,c
  5027   002138  101F               	iorwf	(___fldiv@rem+3)^0,w,c
  5028   00213A  B4D8               	btfsc	status,2,c
  5029   00213C  EFA2  F010         	goto	u4931
  5030   002140  EFA4  F010         	goto	u4930
  5031   002144                     u4931:
  5032   002144  EFBC  F010         	goto	l5967
  5033   002148                     u4930:
  5034   002148  8023               	bsf	___fldiv@grs^0,0,c
  5035   00214A  EFBC  F010         	goto	l5967
  5036   00214E                     l5961:
  5037   00214E  90D8               	bcf	status,0,c
  5038   002150  3610               	rlcf	___fldiv@b^0,f,c
  5039   002152  3611               	rlcf	(___fldiv@b+1)^0,f,c
  5040   002154  3612               	rlcf	(___fldiv@b+2)^0,f,c
  5041   002156  3613               	rlcf	(___fldiv@b+3)^0,f,c
  5042   002158  AE26               	btfss	(___fldiv@grs+3)^0,7,c
  5043   00215A  EFB1  F010         	goto	u4941
  5044   00215E  EFB3  F010         	goto	u4940
  5045   002162                     u4941:
  5046   002162  EFB4  F010         	goto	l2336
  5047   002166                     u4940:
  5048   002166  8010               	bsf	___fldiv@b^0,0,c
  5049   002168                     l2336:
  5050   002168  90D8               	bcf	status,0,c
  5051   00216A  3623               	rlcf	___fldiv@grs^0,f,c
  5052   00216C  3624               	rlcf	(___fldiv@grs+1)^0,f,c
  5053   00216E  3625               	rlcf	(___fldiv@grs+2)^0,f,c
  5054   002170  3626               	rlcf	(___fldiv@grs+3)^0,f,c
  5055   002172  0621               	decf	___fldiv@new_exp^0,f,c
  5056   002174  A0D8               	btfss	status,0,c
  5057   002176  0622               	decf	(___fldiv@new_exp+1)^0,f,c
  5058   002178                     l5967:
  5059   002178  AE12               	btfss	(___fldiv@b+2)^0,7,c
  5060   00217A  EFC1  F010         	goto	u4951
  5061   00217E  EFC3  F010         	goto	u4950
  5062   002182                     u4951:
  5063   002182  EFA7  F010         	goto	l5961
  5064   002186                     u4950:
  5065   002186  0E00               	movlw	0
  5066   002188  6E28               	movwf	___fldiv@aexp^0,c
  5067   00218A  AE26               	btfss	(___fldiv@grs+3)^0,7,c
  5068   00218C  EFCA  F010         	goto	u4961
  5069   002190  EFCC  F010         	goto	u4960
  5070   002194                     u4961:
  5071   002194  EFF0  F010         	goto	l2338
  5072   002198                     u4960:
  5073   002198  0EFF               	movlw	255
  5074   00219A  1423               	andwf	___fldiv@grs^0,w,c
  5075   00219C  6E18               	movwf	??___fldiv^0,c
  5076   00219E  0EFF               	movlw	255
  5077   0021A0  1424               	andwf	(___fldiv@grs+1)^0,w,c
  5078   0021A2  6E19               	movwf	(??___fldiv+1)^0,c
  5079   0021A4  0EFF               	movlw	255
  5080   0021A6  1425               	andwf	(___fldiv@grs+2)^0,w,c
  5081   0021A8  6E1A               	movwf	(??___fldiv+2)^0,c
  5082   0021AA  0E7F               	movlw	127
  5083   0021AC  1426               	andwf	(___fldiv@grs+3)^0,w,c
  5084   0021AE  6E1B               	movwf	(??___fldiv+3)^0,c
  5085   0021B0  5018               	movf	??___fldiv^0,w,c
  5086   0021B2  1019               	iorwf	(??___fldiv+1)^0,w,c
  5087   0021B4  101A               	iorwf	(??___fldiv+2)^0,w,c
  5088   0021B6  101B               	iorwf	(??___fldiv+3)^0,w,c
  5089   0021B8  B4D8               	btfsc	status,2,c
  5090   0021BA  EFE1  F010         	goto	u4971
  5091   0021BE  EFE3  F010         	goto	u4970
  5092   0021C2                     u4971:
  5093   0021C2  EFE7  F010         	goto	l2339
  5094   0021C6                     u4970:
  5095   0021C6                     l5975:
  5096   0021C6  0E01               	movlw	1
  5097   0021C8  6E28               	movwf	___fldiv@aexp^0,c
  5098   0021CA  EFF0  F010         	goto	l2338
  5099   0021CE                     l2339:
  5100   0021CE  A010               	btfss	___fldiv@b^0,0,c
  5101   0021D0  EFEC  F010         	goto	u4981
  5102   0021D4  EFEE  F010         	goto	u4980
  5103   0021D8                     u4981:
  5104   0021D8  EFF0  F010         	goto	l2338
  5105   0021DC                     u4980:
  5106   0021DC  EFE3  F010         	goto	l5975
  5107   0021E0                     l2338:
  5108   0021E0  5028               	movf	___fldiv@aexp^0,w,c
  5109   0021E2  B4D8               	btfsc	status,2,c
  5110   0021E4  EFF6  F010         	goto	u4991
  5111   0021E8  EFF8  F010         	goto	u4990
  5112   0021EC                     u4991:
  5113   0021EC  EF1C  F011         	goto	l5987
  5114   0021F0                     u4990:
  5115   0021F0  0E01               	movlw	1
  5116   0021F2  2610               	addwf	___fldiv@b^0,f,c
  5117   0021F4  0E00               	movlw	0
  5118   0021F6  2211               	addwfc	(___fldiv@b+1)^0,f,c
  5119   0021F8  2212               	addwfc	(___fldiv@b+2)^0,f,c
  5120   0021FA  2213               	addwfc	(___fldiv@b+3)^0,f,c
  5121   0021FC  A013               	btfss	(___fldiv@b+3)^0,0,c
  5122   0021FE  EF03  F011         	goto	u5001
  5123   002202  EF05  F011         	goto	u5000
  5124   002206                     u5001:
  5125   002206  EF1C  F011         	goto	l5987
  5126   00220A                     u5000:
  5127   00220A  C010  F018         	movff	___fldiv@b,??___fldiv
  5128   00220E  C011  F019         	movff	___fldiv@b+1,??___fldiv+1
  5129   002212  C012  F01A         	movff	___fldiv@b+2,??___fldiv+2
  5130   002216  C013  F01B         	movff	___fldiv@b+3,??___fldiv+3
  5131   00221A  341B               	rlcf	(??___fldiv+3)^0,w,c
  5132   00221C  321B               	rrcf	(??___fldiv+3)^0,f,c
  5133   00221E  321A               	rrcf	(??___fldiv+2)^0,f,c
  5134   002220  3219               	rrcf	(??___fldiv+1)^0,f,c
  5135   002222  3218               	rrcf	??___fldiv^0,f,c
  5136   002224  C018  F010         	movff	??___fldiv,___fldiv@b
  5137   002228  C019  F011         	movff	??___fldiv+1,___fldiv@b+1
  5138   00222C  C01A  F012         	movff	??___fldiv+2,___fldiv@b+2
  5139   002230  C01B  F013         	movff	??___fldiv+3,___fldiv@b+3
  5140   002234  4A21               	infsnz	___fldiv@new_exp^0,f,c
  5141   002236  2A22               	incf	(___fldiv@new_exp+1)^0,f,c
  5142   002238                     l5987:
  5143   002238  BE22               	btfsc	(___fldiv@new_exp+1)^0,7,c
  5144   00223A  EF27  F011         	goto	u5011
  5145   00223E  5022               	movf	(___fldiv@new_exp+1)^0,w,c
  5146   002240  E108               	bnz	u5010
  5147   002242  2821               	incf	___fldiv@new_exp^0,w,c
  5148   002244  A0D8               	btfss	status,0,c
  5149   002246  EF27  F011         	goto	u5011
  5150   00224A  EF29  F011         	goto	u5010
  5151   00224E                     u5011:
  5152   00224E  EF34  F011         	goto	l5991
  5153   002252                     u5010:
  5154   002252  0E00               	movlw	0
  5155   002254  6E22               	movwf	(___fldiv@new_exp+1)^0,c
  5156   002256  6821               	setf	___fldiv@new_exp^0,c
  5157   002258  0E00               	movlw	0
  5158   00225A  6E10               	movwf	___fldiv@b^0,c
  5159   00225C  0E00               	movlw	0
  5160   00225E  6E11               	movwf	(___fldiv@b+1)^0,c
  5161   002260  0E00               	movlw	0
  5162   002262  6E12               	movwf	(___fldiv@b+2)^0,c
  5163   002264  0E00               	movlw	0
  5164   002266  6E13               	movwf	(___fldiv@b+3)^0,c
  5165   002268                     l5991:
  5166   002268  BE22               	btfsc	(___fldiv@new_exp+1)^0,7,c
  5167   00226A  EF41  F011         	goto	u5020
  5168   00226E  5022               	movf	(___fldiv@new_exp+1)^0,w,c
  5169   002270  E106               	bnz	u5021
  5170   002272  0421               	decf	___fldiv@new_exp^0,w,c
  5171   002274  B0D8               	btfsc	status,0,c
  5172   002276  EF3F  F011         	goto	u5021
  5173   00227A  EF41  F011         	goto	u5020
  5174   00227E                     u5021:
  5175   00227E  EF4F  F011         	goto	l5995
  5176   002282                     u5020:
  5177   002282  0E00               	movlw	0
  5178   002284  6E22               	movwf	(___fldiv@new_exp+1)^0,c
  5179   002286  0E00               	movlw	0
  5180   002288  6E21               	movwf	___fldiv@new_exp^0,c
  5181   00228A  0E00               	movlw	0
  5182   00228C  6E10               	movwf	___fldiv@b^0,c
  5183   00228E  0E00               	movlw	0
  5184   002290  6E11               	movwf	(___fldiv@b+1)^0,c
  5185   002292  0E00               	movlw	0
  5186   002294  6E12               	movwf	(___fldiv@b+2)^0,c
  5187   002296  0E00               	movlw	0
  5188   002298  6E13               	movwf	(___fldiv@b+3)^0,c
  5189   00229A  0E00               	movlw	0
  5190   00229C  6E20               	movwf	___fldiv@sign^0,c
  5191   00229E                     l5995:
  5192   00229E  C021  F027         	movff	___fldiv@new_exp,___fldiv@bexp
  5193   0022A2  A027               	btfss	___fldiv@bexp^0,0,c
  5194   0022A4  EF56  F011         	goto	u5031
  5195   0022A8  EF58  F011         	goto	u5030
  5196   0022AC                     u5031:
  5197   0022AC  EF5B  F011         	goto	l6001
  5198   0022B0                     u5030:
  5199   0022B0  8E12               	bsf	(___fldiv@b+2)^0,7,c
  5200   0022B2  EF5C  F011         	goto	l6003
  5201   0022B6                     l6001:
  5202   0022B6  9E12               	bcf	(___fldiv@b+2)^0,7,c
  5203   0022B8                     l6003:
  5204   0022B8  90D8               	bcf	status,0,c
  5205   0022BA  3027               	rrcf	___fldiv@bexp^0,w,c
  5206   0022BC  6E13               	movwf	(___fldiv@b+3)^0,c
  5207   0022BE  EF12  F010         	goto	l5917
  5208   0022C2                     l2325:
  5209   0022C2  0012               	return		;funcret
  5210   0022C4                     __end_of___fldiv:
  5211                           	callstack 0
  5212                           
  5213 ;; *************** function ___fladd *****************
  5214 ;; Defined at:
  5215 ;;		line 10 in file "C:\Program Files\Microchip\xc8\v2.45\pic\sources\c99\common\sprcadd.c"
  5216 ;; Parameters:    Size  Location     Type
  5217 ;;  b               4   40[COMRAM] unsigned char 
  5218 ;;  a               4   44[COMRAM] unsigned char 
  5219 ;; Auto vars:     Size  Location     Type
  5220 ;;  grs             1   55[COMRAM] unsigned char 
  5221 ;;  bexp            1   54[COMRAM] unsigned char 
  5222 ;;  aexp            1   53[COMRAM] unsigned char 
  5223 ;;  signs           1   52[COMRAM] unsigned char 
  5224 ;; Return value:  Size  Location     Type
  5225 ;;                  4   40[COMRAM] unsigned char 
  5226 ;; Registers used:
  5227 ;;		wreg, status,2, status,0
  5228 ;; Tracked objects:
  5229 ;;		On entry : 0/0
  5230 ;;		On exit  : 0/0
  5231 ;;		Unchanged: 0/0
  5232 ;; Data sizes:     COMRAM   BANK0   BANK1   BANK2   BANK3   BANK4   BANK5   BANK6   BANK7   BANK8   BANK9  BANK10  BANK1
      +1  BANK12  BANK13  BANK14  BANK15
  5233 ;;      Params:         8       0       0       0       0       0       0       0       0       0       0       0       
      +0       0       0       0       0
  5234 ;;      Locals:         4       0       0       0       0       0       0       0       0       0       0       0       
      +0       0       0       0       0
  5235 ;;      Temps:          4       0       0       0       0       0       0       0       0       0       0       0       
      +0       0       0       0       0
  5236 ;;      Totals:        16       0       0       0       0       0       0       0       0       0       0       0       
      +0       0       0       0       0
  5237 ;;Total ram usage:       16 bytes
  5238 ;; Hardware stack levels used: 1
  5239 ;; Hardware stack levels required when called: 2
  5240 ;; This function calls:
  5241 ;;		Nothing
  5242 ;; This function is called by:
  5243 ;;		_I2C_Master_Mode_Clock_Configurations
  5244 ;;		_ccp1_pwm_set_duty
  5245 ;;		_ccp2_pwm_set_duty
  5246 ;;		_baudrate_calculate
  5247 ;; This function uses a non-reentrant model
  5248 ;;
  5249                           
  5250                           	psect	text26
  5251   001684                     __ptext26:
  5252                           	callstack 0
  5253   001684                     ___fladd:
  5254                           	callstack 25
  5255   001684  502C               	movf	(___fladd@b+3)^0,w,c
  5256   001686  0B80               	andlw	128
  5257   001688  6E35               	movwf	___fladd@signs^0,c
  5258   00168A  502C               	movf	(___fladd@b+3)^0,w,c
  5259   00168C  242C               	addwf	(___fladd@b+3)^0,w,c
  5260   00168E  6E37               	movwf	___fladd@bexp^0,c
  5261   001690  AE2B               	btfss	(___fladd@b+2)^0,7,c
  5262   001692  EF4D  F00B         	goto	u4421
  5263   001696  EF4F  F00B         	goto	u4420
  5264   00169A                     u4421:
  5265   00169A  EF50  F00B         	goto	l5677
  5266   00169E                     u4420:
  5267   00169E  8037               	bsf	___fladd@bexp^0,0,c
  5268   0016A0                     l5677:
  5269   0016A0  5037               	movf	___fladd@bexp^0,w,c
  5270   0016A2  B4D8               	btfsc	status,2,c
  5271   0016A4  EF56  F00B         	goto	u4431
  5272   0016A8  EF58  F00B         	goto	u4430
  5273   0016AC                     u4431:
  5274   0016AC  EF6D  F00B         	goto	l5687
  5275   0016B0                     u4430:
  5276   0016B0  2837               	incf	___fladd@bexp^0,w,c
  5277   0016B2  A4D8               	btfss	status,2,c
  5278   0016B4  EF5E  F00B         	goto	u4441
  5279   0016B8  EF60  F00B         	goto	u4440
  5280   0016BC                     u4441:
  5281   0016BC  EF68  F00B         	goto	l5683
  5282   0016C0                     u4440:
  5283   0016C0  0E00               	movlw	0
  5284   0016C2  6E29               	movwf	___fladd@b^0,c
  5285   0016C4  0E00               	movlw	0
  5286   0016C6  6E2A               	movwf	(___fladd@b+1)^0,c
  5287   0016C8  0E00               	movlw	0
  5288   0016CA  6E2B               	movwf	(___fladd@b+2)^0,c
  5289   0016CC  0E00               	movlw	0
  5290   0016CE  6E2C               	movwf	(___fladd@b+3)^0,c
  5291   0016D0                     l5683:
  5292   0016D0  8E2B               	bsf	(___fladd@b+2)^0,7,c
  5293   0016D2  0E00               	movlw	0
  5294   0016D4  6E2C               	movwf	(___fladd@b+3)^0,c
  5295   0016D6  EF75  F00B         	goto	l5689
  5296   0016DA                     l5687:
  5297   0016DA  0E00               	movlw	0
  5298   0016DC  6E29               	movwf	___fladd@b^0,c
  5299   0016DE  0E00               	movlw	0
  5300   0016E0  6E2A               	movwf	(___fladd@b+1)^0,c
  5301   0016E2  0E00               	movlw	0
  5302   0016E4  6E2B               	movwf	(___fladd@b+2)^0,c
  5303   0016E6  0E00               	movlw	0
  5304   0016E8  6E2C               	movwf	(___fladd@b+3)^0,c
  5305   0016EA                     l5689:
  5306   0016EA  5030               	movf	(___fladd@a+3)^0,w,c
  5307   0016EC  0B80               	andlw	128
  5308   0016EE  6E36               	movwf	___fladd@aexp^0,c
  5309   0016F0  5035               	movf	___fladd@signs^0,w,c
  5310   0016F2  1836               	xorwf	___fladd@aexp^0,w,c
  5311   0016F4  B4D8               	btfsc	status,2,c
  5312   0016F6  EF7F  F00B         	goto	u4451
  5313   0016FA  EF81  F00B         	goto	u4450
  5314   0016FE                     u4451:
  5315   0016FE  EF82  F00B         	goto	l5695
  5316   001702                     u4450:
  5317   001702  8C35               	bsf	___fladd@signs^0,6,c
  5318   001704                     l5695:
  5319   001704  5030               	movf	(___fladd@a+3)^0,w,c
  5320   001706  2430               	addwf	(___fladd@a+3)^0,w,c
  5321   001708  6E36               	movwf	___fladd@aexp^0,c
  5322   00170A  AE2F               	btfss	(___fladd@a+2)^0,7,c
  5323   00170C  EF8A  F00B         	goto	u4461
  5324   001710  EF8C  F00B         	goto	u4460
  5325   001714                     u4461:
  5326   001714  EF8D  F00B         	goto	l5701
  5327   001718                     u4460:
  5328   001718  8036               	bsf	___fladd@aexp^0,0,c
  5329   00171A                     l5701:
  5330   00171A  5036               	movf	___fladd@aexp^0,w,c
  5331   00171C  B4D8               	btfsc	status,2,c
  5332   00171E  EF93  F00B         	goto	u4471
  5333   001722  EF95  F00B         	goto	u4470
  5334   001726                     u4471:
  5335   001726  EFAA  F00B         	goto	l5711
  5336   00172A                     u4470:
  5337   00172A  2836               	incf	___fladd@aexp^0,w,c
  5338   00172C  A4D8               	btfss	status,2,c
  5339   00172E  EF9B  F00B         	goto	u4481
  5340   001732  EF9D  F00B         	goto	u4480
  5341   001736                     u4481:
  5342   001736  EFA5  F00B         	goto	l5707
  5343   00173A                     u4480:
  5344   00173A  0E00               	movlw	0
  5345   00173C  6E2D               	movwf	___fladd@a^0,c
  5346   00173E  0E00               	movlw	0
  5347   001740  6E2E               	movwf	(___fladd@a+1)^0,c
  5348   001742  0E00               	movlw	0
  5349   001744  6E2F               	movwf	(___fladd@a+2)^0,c
  5350   001746  0E00               	movlw	0
  5351   001748  6E30               	movwf	(___fladd@a+3)^0,c
  5352   00174A                     l5707:
  5353   00174A  8E2F               	bsf	(___fladd@a+2)^0,7,c
  5354   00174C  0E00               	movlw	0
  5355   00174E  6E30               	movwf	(___fladd@a+3)^0,c
  5356   001750  EFB2  F00B         	goto	l5713
  5357   001754                     l5711:
  5358   001754  0E00               	movlw	0
  5359   001756  6E2D               	movwf	___fladd@a^0,c
  5360   001758  0E00               	movlw	0
  5361   00175A  6E2E               	movwf	(___fladd@a+1)^0,c
  5362   00175C  0E00               	movlw	0
  5363   00175E  6E2F               	movwf	(___fladd@a+2)^0,c
  5364   001760  0E00               	movlw	0
  5365   001762  6E30               	movwf	(___fladd@a+3)^0,c
  5366   001764                     l5713:
  5367   001764  5037               	movf	___fladd@bexp^0,w,c
  5368   001766  5C36               	subwf	___fladd@aexp^0,w,c
  5369   001768  B0D8               	btfsc	status,0,c
  5370   00176A  EFB9  F00B         	goto	u4491
  5371   00176E  EFBB  F00B         	goto	u4490
  5372   001772                     u4491:
  5373   001772  EFE2  F00B         	goto	l5749
  5374   001776                     u4490:
  5375   001776  AC35               	btfss	___fladd@signs^0,6,c
  5376   001778  EFC0  F00B         	goto	u4501
  5377   00177C  EFC2  F00B         	goto	u4500
  5378   001780                     u4501:
  5379   001780  EFC4  F00B         	goto	l5719
  5380   001784                     u4500:
  5381   001784  0E80               	movlw	128
  5382   001786  1A35               	xorwf	___fladd@signs^0,f,c
  5383   001788                     l5719:
  5384   001788  C037  F038         	movff	___fladd@bexp,___fladd@grs
  5385   00178C  C036  F037         	movff	___fladd@aexp,___fladd@bexp
  5386   001790  C038  F036         	movff	___fladd@grs,___fladd@aexp
  5387   001794  C029  F038         	movff	___fladd@b,___fladd@grs
  5388   001798  C02D  F029         	movff	___fladd@a,___fladd@b
  5389   00179C  C038  F02D         	movff	___fladd@grs,___fladd@a
  5390   0017A0  C02A  F038         	movff	___fladd@b+1,___fladd@grs
  5391   0017A4  C02E  F02A         	movff	___fladd@a+1,___fladd@b+1
  5392   0017A8  C038  F02E         	movff	___fladd@grs,___fladd@a+1
  5393   0017AC  C02B  F038         	movff	___fladd@b+2,___fladd@grs
  5394   0017B0  C02F  F02B         	movff	___fladd@a+2,___fladd@b+2
  5395   0017B4  C038  F02F         	movff	___fladd@grs,___fladd@a+2
  5396   0017B8  C02C  F038         	movff	___fladd@b+3,___fladd@grs
  5397   0017BC  C030  F02C         	movff	___fladd@a+3,___fladd@b+3
  5398   0017C0  C038  F030         	movff	___fladd@grs,___fladd@a+3
  5399   0017C4                     l5749:
  5400   0017C4  0E00               	movlw	0
  5401   0017C6  6E38               	movwf	___fladd@grs^0,c
  5402   0017C8  5037               	movf	___fladd@bexp^0,w,c
  5403   0017CA  C036  F031         	movff	___fladd@aexp,??___fladd
  5404   0017CE  6A32               	clrf	(??___fladd+1)^0,c
  5405   0017D0  5E31               	subwf	??___fladd^0,f,c
  5406   0017D2  0E00               	movlw	0
  5407   0017D4  5A32               	subwfb	(??___fladd+1)^0,f,c
  5408   0017D6  BE32               	btfsc	(??___fladd+1)^0,7,c
  5409   0017D8  EFF7  F00B         	goto	u4511
  5410   0017DC  5032               	movf	(??___fladd+1)^0,w,c
  5411   0017DE  E109               	bnz	u4510
  5412   0017E0  0E1A               	movlw	26
  5413   0017E2  5C31               	subwf	??___fladd^0,w,c
  5414   0017E4  A0D8               	btfss	status,0,c
  5415   0017E6  EFF7  F00B         	goto	u4511
  5416   0017EA  EFF9  F00B         	goto	u4510
  5417   0017EE                     u4511:
  5418   0017EE  EF30  F00C         	goto	l2272
  5419   0017F2                     u4510:
  5420   0017F2  5029               	movf	___fladd@b^0,w,c
  5421   0017F4  102A               	iorwf	(___fladd@b+1)^0,w,c
  5422   0017F6  102B               	iorwf	(___fladd@b+2)^0,w,c
  5423   0017F8  102C               	iorwf	(___fladd@b+3)^0,w,c
  5424   0017FA  A4D8               	btfss	status,2,c
  5425   0017FC  EF02  F00C         	goto	u4521
  5426   001800  EF05  F00C         	goto	u4520
  5427   001804                     u4521:
  5428   001804  0E01               	movlw	1
  5429   001806  EF06  F00C         	goto	u4530
  5430   00180A                     u4520:
  5431   00180A  0E00               	movlw	0
  5432   00180C                     u4530:
  5433   00180C  6E38               	movwf	___fladd@grs^0,c
  5434   00180E  0E00               	movlw	0
  5435   001810  6E29               	movwf	___fladd@b^0,c
  5436   001812  0E00               	movlw	0
  5437   001814  6E2A               	movwf	(___fladd@b+1)^0,c
  5438   001816  0E00               	movlw	0
  5439   001818  6E2B               	movwf	(___fladd@b+2)^0,c
  5440   00181A  0E00               	movlw	0
  5441   00181C  6E2C               	movwf	(___fladd@b+3)^0,c
  5442   00181E  C036  F037         	movff	___fladd@aexp,___fladd@bexp
  5443   001822  EF39  F00C         	goto	l2271
  5444   001826                     l2273:
  5445   001826  A038               	btfss	___fladd@grs^0,0,c
  5446   001828  EF18  F00C         	goto	u4541
  5447   00182C  EF1A  F00C         	goto	u4540
  5448   001830                     u4541:
  5449   001830  EF20  F00C         	goto	l5761
  5450   001834                     u4540:
  5451   001834  90D8               	bcf	status,0,c
  5452   001836  3038               	rrcf	___fladd@grs^0,w,c
  5453   001838  0901               	iorlw	1
  5454   00183A  6E38               	movwf	___fladd@grs^0,c
  5455   00183C  EF22  F00C         	goto	l5763
  5456   001840                     l5761:
  5457   001840  90D8               	bcf	status,0,c
  5458   001842  3238               	rrcf	___fladd@grs^0,f,c
  5459   001844                     l5763:
  5460   001844  A029               	btfss	___fladd@b^0,0,c
  5461   001846  EF27  F00C         	goto	u4551
  5462   00184A  EF29  F00C         	goto	u4550
  5463   00184E                     u4551:
  5464   00184E  EF2A  F00C         	goto	l5767
  5465   001852                     u4550:
  5466   001852  8E38               	bsf	___fladd@grs^0,7,c
  5467   001854                     l5767:
  5468   001854  342C               	rlcf	(___fladd@b+3)^0,w,c
  5469   001856  322C               	rrcf	(___fladd@b+3)^0,f,c
  5470   001858  322B               	rrcf	(___fladd@b+2)^0,f,c
  5471   00185A  322A               	rrcf	(___fladd@b+1)^0,f,c
  5472   00185C  3229               	rrcf	___fladd@b^0,f,c
  5473   00185E  2A37               	incf	___fladd@bexp^0,f,c
  5474   001860                     l2272:
  5475   001860  5036               	movf	___fladd@aexp^0,w,c
  5476   001862  5C37               	subwf	___fladd@bexp^0,w,c
  5477   001864  A0D8               	btfss	status,0,c
  5478   001866  EF37  F00C         	goto	u4561
  5479   00186A  EF39  F00C         	goto	u4560
  5480   00186E                     u4561:
  5481   00186E  EF13  F00C         	goto	l2273
  5482   001872                     u4560:
  5483   001872                     l2271:
  5484   001872  BC35               	btfsc	___fladd@signs^0,6,c
  5485   001874  EF3E  F00C         	goto	u4571
  5486   001878  EF40  F00C         	goto	u4570
  5487   00187C                     u4571:
  5488   00187C  EF80  F00C         	goto	l5795
  5489   001880                     u4570:
  5490   001880  5037               	movf	___fladd@bexp^0,w,c
  5491   001882  A4D8               	btfss	status,2,c
  5492   001884  EF46  F00C         	goto	u4581
  5493   001888  EF48  F00C         	goto	u4580
  5494   00188C                     u4581:
  5495   00188C  EF52  F00C         	goto	l5777
  5496   001890                     u4580:
  5497   001890  0E00               	movlw	0
  5498   001892  6E29               	movwf	?___fladd^0,c
  5499   001894  0E00               	movlw	0
  5500   001896  6E2A               	movwf	(?___fladd+1)^0,c
  5501   001898  0E00               	movlw	0
  5502   00189A  6E2B               	movwf	(?___fladd+2)^0,c
  5503   00189C  0E00               	movlw	0
  5504   00189E  6E2C               	movwf	(?___fladd+3)^0,c
  5505   0018A0  EFA1  F00D         	goto	l2280
  5506   0018A4                     l5777:
  5507   0018A4  502D               	movf	___fladd@a^0,w,c
  5508   0018A6  2629               	addwf	___fladd@b^0,f,c
  5509   0018A8  502E               	movf	(___fladd@a+1)^0,w,c
  5510   0018AA  222A               	addwfc	(___fladd@b+1)^0,f,c
  5511   0018AC  502F               	movf	(___fladd@a+2)^0,w,c
  5512   0018AE  222B               	addwfc	(___fladd@b+2)^0,f,c
  5513   0018B0  5030               	movf	(___fladd@a+3)^0,w,c
  5514   0018B2  222C               	addwfc	(___fladd@b+3)^0,f,c
  5515   0018B4  A02C               	btfss	(___fladd@b+3)^0,0,c
  5516   0018B6  EF5F  F00C         	goto	u4591
  5517   0018BA  EF61  F00C         	goto	u4590
  5518   0018BE                     u4591:
  5519   0018BE  EF0D  F00D         	goto	l5831
  5520   0018C2                     u4590:
  5521   0018C2  A038               	btfss	___fladd@grs^0,0,c
  5522   0018C4  EF66  F00C         	goto	u4601
  5523   0018C8  EF68  F00C         	goto	u4600
  5524   0018CC                     u4601:
  5525   0018CC  EF6E  F00C         	goto	l5785
  5526   0018D0                     u4600:
  5527   0018D0  90D8               	bcf	status,0,c
  5528   0018D2  3038               	rrcf	___fladd@grs^0,w,c
  5529   0018D4  0901               	iorlw	1
  5530   0018D6  6E38               	movwf	___fladd@grs^0,c
  5531   0018D8  EF70  F00C         	goto	l5787
  5532   0018DC                     l5785:
  5533   0018DC  90D8               	bcf	status,0,c
  5534   0018DE  3238               	rrcf	___fladd@grs^0,f,c
  5535   0018E0                     l5787:
  5536   0018E0  A029               	btfss	___fladd@b^0,0,c
  5537   0018E2  EF75  F00C         	goto	u4611
  5538   0018E6  EF77  F00C         	goto	u4610
  5539   0018EA                     u4611:
  5540   0018EA  EF78  F00C         	goto	l5791
  5541   0018EE                     u4610:
  5542   0018EE  8E38               	bsf	___fladd@grs^0,7,c
  5543   0018F0                     l5791:
  5544   0018F0  342C               	rlcf	(___fladd@b+3)^0,w,c
  5545   0018F2  322C               	rrcf	(___fladd@b+3)^0,f,c
  5546   0018F4  322B               	rrcf	(___fladd@b+2)^0,f,c
  5547   0018F6  322A               	rrcf	(___fladd@b+1)^0,f,c
  5548   0018F8  3229               	rrcf	___fladd@b^0,f,c
  5549   0018FA  2A37               	incf	___fladd@bexp^0,f,c
  5550   0018FC  EF0D  F00D         	goto	l5831
  5551   001900                     l5795:
  5552   001900  502D               	movf	___fladd@a^0,w,c
  5553   001902  5C29               	subwf	___fladd@b^0,w,c
  5554   001904  502E               	movf	(___fladd@a+1)^0,w,c
  5555   001906  582A               	subwfb	(___fladd@b+1)^0,w,c
  5556   001908  502F               	movf	(___fladd@a+2)^0,w,c
  5557   00190A  582B               	subwfb	(___fladd@b+2)^0,w,c
  5558   00190C  502C               	movf	(___fladd@b+3)^0,w,c
  5559   00190E  0A80               	xorlw	128
  5560   001910  6E31               	movwf	??___fladd^0,c
  5561   001912  5030               	movf	(___fladd@a+3)^0,w,c
  5562   001914  0A80               	xorlw	128
  5563   001916  5831               	subwfb	??___fladd^0,w,c
  5564   001918  B0D8               	btfsc	status,0,c
  5565   00191A  EF91  F00C         	goto	u4621
  5566   00191E  EF93  F00C         	goto	u4620
  5567   001922                     u4621:
  5568   001922  EFBE  F00C         	goto	l5805
  5569   001926                     u4620:
  5570   001926  5029               	movf	___fladd@b^0,w,c
  5571   001928  5C2D               	subwf	___fladd@a^0,w,c
  5572   00192A  6E31               	movwf	??___fladd^0,c
  5573   00192C  502A               	movf	(___fladd@b+1)^0,w,c
  5574   00192E  582E               	subwfb	(___fladd@a+1)^0,w,c
  5575   001930  6E32               	movwf	(??___fladd+1)^0,c
  5576   001932  502B               	movf	(___fladd@b+2)^0,w,c
  5577   001934  582F               	subwfb	(___fladd@a+2)^0,w,c
  5578   001936  6E33               	movwf	(??___fladd+2)^0,c
  5579   001938  502C               	movf	(___fladd@b+3)^0,w,c
  5580   00193A  5830               	subwfb	(___fladd@a+3)^0,w,c
  5581   00193C  6E34               	movwf	(??___fladd+3)^0,c
  5582   00193E  0EFF               	movlw	255
  5583   001940  2431               	addwf	??___fladd^0,w,c
  5584   001942  6E29               	movwf	___fladd@b^0,c
  5585   001944  0EFF               	movlw	255
  5586   001946  2032               	addwfc	(??___fladd+1)^0,w,c
  5587   001948  6E2A               	movwf	(___fladd@b+1)^0,c
  5588   00194A  0EFF               	movlw	255
  5589   00194C  2033               	addwfc	(??___fladd+2)^0,w,c
  5590   00194E  6E2B               	movwf	(___fladd@b+2)^0,c
  5591   001950  0EFF               	movlw	255
  5592   001952  2034               	addwfc	(??___fladd+3)^0,w,c
  5593   001954  6E2C               	movwf	(___fladd@b+3)^0,c
  5594   001956  0E80               	movlw	128
  5595   001958  1A35               	xorwf	___fladd@signs^0,f,c
  5596   00195A  6C38               	negf	___fladd@grs^0,c
  5597   00195C  5038               	movf	___fladd@grs^0,w,c
  5598   00195E  A4D8               	btfss	status,2,c
  5599   001960  EFB4  F00C         	goto	u4631
  5600   001964  EFB6  F00C         	goto	u4630
  5601   001968                     u4631:
  5602   001968  EFC6  F00C         	goto	l2288
  5603   00196C                     u4630:
  5604   00196C  0E01               	movlw	1
  5605   00196E  2629               	addwf	___fladd@b^0,f,c
  5606   001970  0E00               	movlw	0
  5607   001972  222A               	addwfc	(___fladd@b+1)^0,f,c
  5608   001974  222B               	addwfc	(___fladd@b+2)^0,f,c
  5609   001976  222C               	addwfc	(___fladd@b+3)^0,f,c
  5610   001978  EFC6  F00C         	goto	l2288
  5611   00197C                     l5805:
  5612   00197C  502D               	movf	___fladd@a^0,w,c
  5613   00197E  5E29               	subwf	___fladd@b^0,f,c
  5614   001980  502E               	movf	(___fladd@a+1)^0,w,c
  5615   001982  5A2A               	subwfb	(___fladd@b+1)^0,f,c
  5616   001984  502F               	movf	(___fladd@a+2)^0,w,c
  5617   001986  5A2B               	subwfb	(___fladd@b+2)^0,f,c
  5618   001988  5030               	movf	(___fladd@a+3)^0,w,c
  5619   00198A  5A2C               	subwfb	(___fladd@b+3)^0,f,c
  5620   00198C                     l2288:
  5621   00198C  5029               	movf	___fladd@b^0,w,c
  5622   00198E  102A               	iorwf	(___fladd@b+1)^0,w,c
  5623   001990  102B               	iorwf	(___fladd@b+2)^0,w,c
  5624   001992  102C               	iorwf	(___fladd@b+3)^0,w,c
  5625   001994  A4D8               	btfss	status,2,c
  5626   001996  EFCF  F00C         	goto	u4641
  5627   00199A  EFD1  F00C         	goto	u4640
  5628   00199E                     u4641:
  5629   00199E  EF06  F00D         	goto	l5829
  5630   0019A2                     u4640:
  5631   0019A2  5038               	movf	___fladd@grs^0,w,c
  5632   0019A4  A4D8               	btfss	status,2,c
  5633   0019A6  EFD7  F00C         	goto	u4651
  5634   0019AA  EFD9  F00C         	goto	u4650
  5635   0019AE                     u4651:
  5636   0019AE  EF06  F00D         	goto	l5829
  5637   0019B2                     u4650:
  5638   0019B2  0E00               	movlw	0
  5639   0019B4  6E29               	movwf	?___fladd^0,c
  5640   0019B6  0E00               	movlw	0
  5641   0019B8  6E2A               	movwf	(?___fladd+1)^0,c
  5642   0019BA  0E00               	movlw	0
  5643   0019BC  6E2B               	movwf	(?___fladd+2)^0,c
  5644   0019BE  0E00               	movlw	0
  5645   0019C0  6E2C               	movwf	(?___fladd+3)^0,c
  5646   0019C2  EFA1  F00D         	goto	l2280
  5647   0019C6                     l5813:
  5648   0019C6  90D8               	bcf	status,0,c
  5649   0019C8  3629               	rlcf	___fladd@b^0,f,c
  5650   0019CA  362A               	rlcf	(___fladd@b+1)^0,f,c
  5651   0019CC  362B               	rlcf	(___fladd@b+2)^0,f,c
  5652   0019CE  362C               	rlcf	(___fladd@b+3)^0,f,c
  5653   0019D0  AE38               	btfss	___fladd@grs^0,7,c
  5654   0019D2  EFED  F00C         	goto	u4661
  5655   0019D6  EFEF  F00C         	goto	u4660
  5656   0019DA                     u4661:
  5657   0019DA  EFF0  F00C         	goto	l5819
  5658   0019DE                     u4660:
  5659   0019DE  8029               	bsf	___fladd@b^0,0,c
  5660   0019E0                     l5819:
  5661   0019E0  A038               	btfss	___fladd@grs^0,0,c
  5662   0019E2  EFF5  F00C         	goto	u4671
  5663   0019E6  EFF7  F00C         	goto	u4670
  5664   0019EA                     u4671:
  5665   0019EA  EFFB  F00C         	goto	l5823
  5666   0019EE                     u4670:
  5667   0019EE  80D8               	bsf	status,0,c
  5668   0019F0  3638               	rlcf	___fladd@grs^0,f,c
  5669   0019F2  EFFD  F00C         	goto	l5825
  5670   0019F6                     l5823:
  5671   0019F6  90D8               	bcf	status,0,c
  5672   0019F8  3638               	rlcf	___fladd@grs^0,f,c
  5673   0019FA                     l5825:
  5674   0019FA  5037               	movf	___fladd@bexp^0,w,c
  5675   0019FC  B4D8               	btfsc	status,2,c
  5676   0019FE  EF03  F00D         	goto	u4681
  5677   001A02  EF05  F00D         	goto	u4680
  5678   001A06                     u4681:
  5679   001A06  EF06  F00D         	goto	l5829
  5680   001A0A                     u4680:
  5681   001A0A  0637               	decf	___fladd@bexp^0,f,c
  5682   001A0C                     l5829:
  5683   001A0C  AE2B               	btfss	(___fladd@b+2)^0,7,c
  5684   001A0E  EF0B  F00D         	goto	u4691
  5685   001A12  EF0D  F00D         	goto	u4690
  5686   001A16                     u4691:
  5687   001A16  EFE3  F00C         	goto	l5813
  5688   001A1A                     u4690:
  5689   001A1A                     l5831:
  5690   001A1A  0E00               	movlw	0
  5691   001A1C  6E36               	movwf	___fladd@aexp^0,c
  5692   001A1E  AE38               	btfss	___fladd@grs^0,7,c
  5693   001A20  EF14  F00D         	goto	u4701
  5694   001A24  EF16  F00D         	goto	u4700
  5695   001A28                     u4701:
  5696   001A28  EF2E  F00D         	goto	l2297
  5697   001A2C                     u4700:
  5698   001A2C  C038  F031         	movff	___fladd@grs,??___fladd
  5699   001A30  0E7F               	movlw	127
  5700   001A32  1631               	andwf	??___fladd^0,f,c
  5701   001A34  B4D8               	btfsc	status,2,c
  5702   001A36  EF1F  F00D         	goto	u4711
  5703   001A3A  EF21  F00D         	goto	u4710
  5704   001A3E                     u4711:
  5705   001A3E  EF25  F00D         	goto	l2298
  5706   001A42                     u4710:
  5707   001A42                     l5837:
  5708   001A42  0E01               	movlw	1
  5709   001A44  6E36               	movwf	___fladd@aexp^0,c
  5710   001A46  EF2E  F00D         	goto	l2297
  5711   001A4A                     l2298:
  5712   001A4A  A029               	btfss	___fladd@b^0,0,c
  5713   001A4C  EF2A  F00D         	goto	u4721
  5714   001A50  EF2C  F00D         	goto	u4720
  5715   001A54                     u4721:
  5716   001A54  EF2E  F00D         	goto	l2297
  5717   001A58                     u4720:
  5718   001A58  EF21  F00D         	goto	l5837
  5719   001A5C                     l2297:
  5720   001A5C  5036               	movf	___fladd@aexp^0,w,c
  5721   001A5E  B4D8               	btfsc	status,2,c
  5722   001A60  EF34  F00D         	goto	u4731
  5723   001A64  EF36  F00D         	goto	u4730
  5724   001A68                     u4731:
  5725   001A68  EF61  F00D         	goto	l5849
  5726   001A6C                     u4730:
  5727   001A6C  0E01               	movlw	1
  5728   001A6E  2629               	addwf	___fladd@b^0,f,c
  5729   001A70  0E00               	movlw	0
  5730   001A72  222A               	addwfc	(___fladd@b+1)^0,f,c
  5731   001A74  222B               	addwfc	(___fladd@b+2)^0,f,c
  5732   001A76  222C               	addwfc	(___fladd@b+3)^0,f,c
  5733   001A78  A02C               	btfss	(___fladd@b+3)^0,0,c
  5734   001A7A  EF41  F00D         	goto	u4741
  5735   001A7E  EF43  F00D         	goto	u4740
  5736   001A82                     u4741:
  5737   001A82  EF61  F00D         	goto	l5849
  5738   001A86                     u4740:
  5739   001A86  C029  F031         	movff	___fladd@b,??___fladd
  5740   001A8A  C02A  F032         	movff	___fladd@b+1,??___fladd+1
  5741   001A8E  C02B  F033         	movff	___fladd@b+2,??___fladd+2
  5742   001A92  C02C  F034         	movff	___fladd@b+3,??___fladd+3
  5743   001A96  3434               	rlcf	(??___fladd+3)^0,w,c
  5744   001A98  3234               	rrcf	(??___fladd+3)^0,f,c
  5745   001A9A  3233               	rrcf	(??___fladd+2)^0,f,c
  5746   001A9C  3232               	rrcf	(??___fladd+1)^0,f,c
  5747   001A9E  3231               	rrcf	??___fladd^0,f,c
  5748   001AA0  C031  F029         	movff	??___fladd,___fladd@b
  5749   001AA4  C032  F02A         	movff	??___fladd+1,___fladd@b+1
  5750   001AA8  C033  F02B         	movff	??___fladd+2,___fladd@b+2
  5751   001AAC  C034  F02C         	movff	??___fladd+3,___fladd@b+3
  5752   001AB0  2837               	incf	___fladd@bexp^0,w,c
  5753   001AB2  B4D8               	btfsc	status,2,c
  5754   001AB4  EF5E  F00D         	goto	u4751
  5755   001AB8  EF60  F00D         	goto	u4750
  5756   001ABC                     u4751:
  5757   001ABC  EF61  F00D         	goto	l5849
  5758   001AC0                     u4750:
  5759   001AC0  2A37               	incf	___fladd@bexp^0,f,c
  5760   001AC2                     l5849:
  5761   001AC2  2837               	incf	___fladd@bexp^0,w,c
  5762   001AC4  B4D8               	btfsc	status,2,c
  5763   001AC6  EF67  F00D         	goto	u4761
  5764   001ACA  EF69  F00D         	goto	u4760
  5765   001ACE                     u4761:
  5766   001ACE  EF71  F00D         	goto	l5853
  5767   001AD2                     u4760:
  5768   001AD2  5037               	movf	___fladd@bexp^0,w,c
  5769   001AD4  A4D8               	btfss	status,2,c
  5770   001AD6  EF6F  F00D         	goto	u4771
  5771   001ADA  EF71  F00D         	goto	u4770
  5772   001ADE                     u4771:
  5773   001ADE  EF83  F00D         	goto	l5857
  5774   001AE2                     u4770:
  5775   001AE2                     l5853:
  5776   001AE2  0E00               	movlw	0
  5777   001AE4  6E29               	movwf	___fladd@b^0,c
  5778   001AE6  0E00               	movlw	0
  5779   001AE8  6E2A               	movwf	(___fladd@b+1)^0,c
  5780   001AEA  0E00               	movlw	0
  5781   001AEC  6E2B               	movwf	(___fladd@b+2)^0,c
  5782   001AEE  0E00               	movlw	0
  5783   001AF0  6E2C               	movwf	(___fladd@b+3)^0,c
  5784   001AF2  5037               	movf	___fladd@bexp^0,w,c
  5785   001AF4  A4D8               	btfss	status,2,c
  5786   001AF6  EF7F  F00D         	goto	u4781
  5787   001AFA  EF81  F00D         	goto	u4780
  5788   001AFE                     u4781:
  5789   001AFE  EF83  F00D         	goto	l5857
  5790   001B02                     u4780:
  5791   001B02  0E00               	movlw	0
  5792   001B04  6E35               	movwf	___fladd@signs^0,c
  5793   001B06                     l5857:
  5794   001B06  A037               	btfss	___fladd@bexp^0,0,c
  5795   001B08  EF88  F00D         	goto	u4791
  5796   001B0C  EF8A  F00D         	goto	u4790
  5797   001B10                     u4791:
  5798   001B10  EF8D  F00D         	goto	l5861
  5799   001B14                     u4790:
  5800   001B14  8E2B               	bsf	(___fladd@b+2)^0,7,c
  5801   001B16  EF8E  F00D         	goto	l5863
  5802   001B1A                     l5861:
  5803   001B1A  9E2B               	bcf	(___fladd@b+2)^0,7,c
  5804   001B1C                     l5863:
  5805   001B1C  90D8               	bcf	status,0,c
  5806   001B1E  3037               	rrcf	___fladd@bexp^0,w,c
  5807   001B20  6E2C               	movwf	(___fladd@b+3)^0,c
  5808   001B22  AE35               	btfss	___fladd@signs^0,7,c
  5809   001B24  EF96  F00D         	goto	u4801
  5810   001B28  EF98  F00D         	goto	u4800
  5811   001B2C                     u4801:
  5812   001B2C  EF99  F00D         	goto	l5869
  5813   001B30                     u4800:
  5814   001B30  8E2C               	bsf	(___fladd@b+3)^0,7,c
  5815   001B32                     l5869:
  5816   001B32  C029  F029         	movff	___fladd@b,?___fladd
  5817   001B36  C02A  F02A         	movff	___fladd@b+1,?___fladd+1
  5818   001B3A  C02B  F02B         	movff	___fladd@b+2,?___fladd+2
  5819   001B3E  C02C  F02C         	movff	___fladd@b+3,?___fladd+3
  5820   001B42                     l2280:
  5821   001B42  0012               	return		;funcret
  5822   001B44                     __end_of___fladd:
  5823                           	callstack 0
  5824                           
  5825 ;; *************** function _distance_ultrasonic *****************
  5826 ;; Defined at:
  5827 ;;		line 23 in file "ECU_layer/ultrasonic/hal_ultrasonic.c"
  5828 ;; Parameters:    Size  Location     Type
  5829 ;;  ultra_pins      1   12[COMRAM] PTR struct .
  5830 ;;		 -> ultra_pins(2), 
  5831 ;; Auto vars:     Size  Location     Type
  5832 ;;  l_variable      1   13[COMRAM] unsigned char 
  5833 ;; Return value:  Size  Location     Type
  5834 ;;                  1    wreg      unsigned char 
  5835 ;; Registers used:
  5836 ;;		wreg, fsr1l, fsr1h, fsr2l, fsr2h, status,2, status,0, prodl, prodh, cstack
  5837 ;; Tracked objects:
  5838 ;;		On entry : 0/0
  5839 ;;		On exit  : 0/0
  5840 ;;		Unchanged: 0/0
  5841 ;; Data sizes:     COMRAM   BANK0   BANK1   BANK2   BANK3   BANK4   BANK5   BANK6   BANK7   BANK8   BANK9  BANK10  BANK1
      +1  BANK12  BANK13  BANK14  BANK15
  5842 ;;      Params:         1       0       0       0       0       0       0       0       0       0       0       0       
      +0       0       0       0       0
  5843 ;;      Locals:         1       0       0       0       0       0       0       0       0       0       0       0       
      +0       0       0       0       0
  5844 ;;      Temps:          0       0       0       0       0       0       0       0       0       0       0       0       
      +0       0       0       0       0
  5845 ;;      Totals:         2       0       0       0       0       0       0       0       0       0       0       0       
      +0       0       0       0       0
  5846 ;;Total ram usage:        2 bytes
  5847 ;; Hardware stack levels used: 1
  5848 ;; Hardware stack levels required when called: 4
  5849 ;; This function calls:
  5850 ;;		_measure_distance_
  5851 ;;		_send_start
  5852 ;; This function is called by:
  5853 ;;		_main
  5854 ;; This function uses a non-reentrant model
  5855 ;;
  5856                           
  5857                           	psect	text27
  5858   0033F6                     __ptext27:
  5859                           	callstack 0
  5860   0033F6                     _distance_ultrasonic:
  5861                           	callstack 26
  5862   0033F6                     
  5863                           ;ECU_layer/ultrasonic/hal_ultrasonic.c: 25:     send_start(ultra_pins);
  5864   0033F6  C00D  F00A         	movff	distance_ultrasonic@ultra_pins,send_start@ultra_pins
  5865   0033FA  EC9B  F019         	call	_send_start	;wreg free
  5866   0033FE                     
  5867                           ;ECU_layer/ultrasonic/hal_ultrasonic.c: 26:     l_variable = measure_distance_(ultra_pin
      +                          s);
  5868   0033FE  C00D  F009         	movff	distance_ultrasonic@ultra_pins,measure_distance_@ultra_pins
  5869   003402  ECD2  F015         	call	_measure_distance_	;wreg free
  5870   003406  6E0E               	movwf	distance_ultrasonic@l_variable^0,c
  5871   003408                     
  5872                           ;ECU_layer/ultrasonic/hal_ultrasonic.c: 27:     return (l_variable );
  5873   003408  500E               	movf	distance_ultrasonic@l_variable^0,w,c
  5874   00340A  0012               	return		;funcret
  5875   00340C                     __end_of_distance_ultrasonic:
  5876                           	callstack 0
  5877                           
  5878 ;; *************** function _send_start *****************
  5879 ;; Defined at:
  5880 ;;		line 32 in file "ECU_layer/ultrasonic/hal_ultrasonic.c"
  5881 ;; Parameters:    Size  Location     Type
  5882 ;;  ultra_pins      1    9[COMRAM] PTR struct .
  5883 ;;		 -> ultra_pins(2), 
  5884 ;; Auto vars:     Size  Location     Type
  5885 ;;		None
  5886 ;; Return value:  Size  Location     Type
  5887 ;;                  1    wreg      void 
  5888 ;; Registers used:
  5889 ;;		wreg, fsr2l, fsr2h, status,2, status,0, prodl, prodh, cstack
  5890 ;; Tracked objects:
  5891 ;;		On entry : 0/0
  5892 ;;		On exit  : 0/0
  5893 ;;		Unchanged: 0/0
  5894 ;; Data sizes:     COMRAM   BANK0   BANK1   BANK2   BANK3   BANK4   BANK5   BANK6   BANK7   BANK8   BANK9  BANK10  BANK1
      +1  BANK12  BANK13  BANK14  BANK15
  5895 ;;      Params:         1       0       0       0       0       0       0       0       0       0       0       0       
      +0       0       0       0       0
  5896 ;;      Locals:         0       0       0       0       0       0       0       0       0       0       0       0       
      +0       0       0       0       0
  5897 ;;      Temps:          0       0       0       0       0       0       0       0       0       0       0       0       
      +0       0       0       0       0
  5898 ;;      Totals:         1       0       0       0       0       0       0       0       0       0       0       0       
      +0       0       0       0       0
  5899 ;;Total ram usage:        1 bytes
  5900 ;; Hardware stack levels used: 1
  5901 ;; Hardware stack levels required when called: 3
  5902 ;; This function calls:
  5903 ;;		_GPIO_pIN_WRITE_LOGIC
  5904 ;; This function is called by:
  5905 ;;		_distance_ultrasonic
  5906 ;; This function uses a non-reentrant model
  5907 ;;
  5908                           
  5909                           	psect	text28
  5910   003336                     __ptext28:
  5911                           	callstack 0
  5912   003336                     _send_start:
  5913                           	callstack 26
  5914   003336                     
  5915                           ;ECU_layer/ultrasonic/hal_ultrasonic.c: 33:     GPIO_pIN_WRITE_LOGIC(&(ultra_pins->trigg
      +                          er_pin),GPIO_HIGH);
  5916   003336  C00A  F002         	movff	send_start@ultra_pins,GPIO_pIN_WRITE_LOGIC@config_pin
  5917   00333A  0E01               	movlw	1
  5918   00333C  6E03               	movwf	GPIO_pIN_WRITE_LOGIC@logic^0,c
  5919   00333E  EC67  F013         	call	_GPIO_pIN_WRITE_LOGIC	;wreg free
  5920   003342                     
  5921                           ;ECU_layer/ultrasonic/hal_ultrasonic.c: 34:     _delay((unsigned long)((10)*(4000000UL/4
      +                          000000.0)));
  5922   003342  0E03               	movlw	3
  5923   003344                     u8497:
  5924   003344  2EE8               	decfsz	wreg,f,c
  5925   003346  D7FE               	bra	u8497
  5926   003348  0000               	nop	
  5927   00334A                     
  5928                           ;ECU_layer/ultrasonic/hal_ultrasonic.c: 35:     GPIO_pIN_WRITE_LOGIC(&(ultra_pins->trigg
      +                          er_pin),GPIO_LOW);
  5929   00334A  C00A  F002         	movff	send_start@ultra_pins,GPIO_pIN_WRITE_LOGIC@config_pin
  5930   00334E  0E00               	movlw	0
  5931   003350  6E03               	movwf	GPIO_pIN_WRITE_LOGIC@logic^0,c
  5932   003352  EC67  F013         	call	_GPIO_pIN_WRITE_LOGIC	;wreg free
  5933   003356  0012               	return		;funcret
  5934   003358                     __end_of_send_start:
  5935                           	callstack 0
  5936                           
  5937 ;; *************** function _GPIO_pIN_WRITE_LOGIC *****************
  5938 ;; Defined at:
  5939 ;;		line 50 in file "MKAL_layer/gpio/pro_gpio.c"
  5940 ;; Parameters:    Size  Location     Type
  5941 ;;  config_pin      1    1[COMRAM] PTR const struct .
  5942 ;;		 -> buzzer(1), servo1(1), ultra_pins$ECHO_pin(1), ultra_pins$trigger_pin(1), 
  5943 ;;		 -> ultra_pins(2), matrix_keypad$keymap_rows_pins(4), matrix_keypad(8), relay_turn_off@pin_config(1), 
  5944 ;;		 -> relay_turn_on@pin_config(1), relay_intialize@pin_config(1), led_turn_off@pin_config(1), led_turn_on@pin_config(1
      +), 
  5945 ;;		 -> led_intialize@pin_config(1), 
  5946 ;;  logic           1    2[COMRAM] enum E2980
  5947 ;; Auto vars:     Size  Location     Type
  5948 ;;  ret             1    8[COMRAM] unsigned char 
  5949 ;; Return value:  Size  Location     Type
  5950 ;;                  1    wreg      unsigned char 
  5951 ;; Registers used:
  5952 ;;		wreg, fsr2l, fsr2h, status,2, status,0, prodl, prodh
  5953 ;; Tracked objects:
  5954 ;;		On entry : 0/0
  5955 ;;		On exit  : 0/0
  5956 ;;		Unchanged: 0/0
  5957 ;; Data sizes:     COMRAM   BANK0   BANK1   BANK2   BANK3   BANK4   BANK5   BANK6   BANK7   BANK8   BANK9  BANK10  BANK1
      +1  BANK12  BANK13  BANK14  BANK15
  5958 ;;      Params:         2       0       0       0       0       0       0       0       0       0       0       0       
      +0       0       0       0       0
  5959 ;;      Locals:         1       0       0       0       0       0       0       0       0       0       0       0       
      +0       0       0       0       0
  5960 ;;      Temps:          5       0       0       0       0       0       0       0       0       0       0       0       
      +0       0       0       0       0
  5961 ;;      Totals:         8       0       0       0       0       0       0       0       0       0       0       0       
      +0       0       0       0       0
  5962 ;;Total ram usage:        8 bytes
  5963 ;; Hardware stack levels used: 1
  5964 ;; Hardware stack levels required when called: 2
  5965 ;; This function calls:
  5966 ;;		Nothing
  5967 ;; This function is called by:
  5968 ;;		_led_turn_on
  5969 ;;		_led_turn_off
  5970 ;;		_keypad_get_value
  5971 ;;		_send_start
  5972 ;;		_GPIO_pIN_INTIALIZE
  5973 ;;		_main
  5974 ;;		_lcd_4bit_send_command
  5975 ;;		_lcd_4bit_send_char_data
  5976 ;;		_lcd_8bit_send_command
  5977 ;;		_lcd_8bit_send_char_data
  5978 ;;		_lcd_send_4bits
  5979 ;;		_lcd_4bit_send_enable_signal
  5980 ;;		_lcd_8bit_send_enable_signal
  5981 ;;		_morot_turn_right
  5982 ;;		_morot_turn_left
  5983 ;;		_morot_stop
  5984 ;;		_relay_turn_on
  5985 ;;		_relay_turn_off
  5986 ;; This function uses a non-reentrant model
  5987 ;;
  5988                           
  5989                           	psect	text29
  5990   0026CE                     __ptext29:
  5991                           	callstack 0
  5992   0026CE                     _GPIO_pIN_WRITE_LOGIC:
  5993                           	callstack 27
  5994   0026CE                     
  5995                           ;MKAL_layer/gpio/pro_gpio.c: 50: Std_ReturnType GPIO_pIN_WRITE_LOGIC(const pin_config_t 
      +                          *config_pin ,logic_t logic);MKAL_layer/gpio/pro_gpio.c: 51: {;MKAL_layer/gpio/pro_gpio.c
      +                          : 52:     Std_ReturnType ret =(Std_ReturnType)0x01;
  5996   0026CE  0E01               	movlw	1
  5997   0026D0  6E09               	movwf	GPIO_pIN_WRITE_LOGIC@ret^0,c
  5998                           
  5999                           ;MKAL_layer/gpio/pro_gpio.c: 53:     if ((((void*)0) == config_pin) || (config_pin->pin 
      +                          > 8 -1)){
  6000   0026D2  5002               	movf	GPIO_pIN_WRITE_LOGIC@config_pin^0,w,c
  6001   0026D4  B4D8               	btfsc	status,2,c
  6002   0026D6  EF6F  F013         	goto	u4381
  6003   0026DA  EF71  F013         	goto	u4380
  6004   0026DE                     u4381:
  6005   0026DE  EF81  F013         	goto	l5653
  6006   0026E2                     u4380:
  6007   0026E2  5002               	movf	GPIO_pIN_WRITE_LOGIC@config_pin^0,w,c
  6008   0026E4  6ED9               	movwf	fsr2l,c
  6009   0026E6  6ADA               	clrf	fsr2h,c
  6010   0026E8  30DF               	rrcf	223,w,c
  6011   0026EA  32E8               	rrcf	wreg,f,c
  6012   0026EC  32E8               	rrcf	wreg,f,c
  6013   0026EE  0B07               	andlw	7
  6014   0026F0  6E04               	movwf	??_GPIO_pIN_WRITE_LOGIC^0,c
  6015   0026F2  0E07               	movlw	7
  6016   0026F4  6404               	cpfsgt	??_GPIO_pIN_WRITE_LOGIC^0,c
  6017   0026F6  EF7F  F013         	goto	u4391
  6018   0026FA  EF81  F013         	goto	u4390
  6019   0026FE                     u4391:
  6020   0026FE  EFD8  F013         	goto	l5661
  6021   002702                     u4390:
  6022   002702                     l5653:
  6023                           
  6024                           ;MKAL_layer/gpio/pro_gpio.c: 54:         ret =(Std_ReturnType)0x00;
  6025   002702  0E00               	movlw	0
  6026   002704  6E09               	movwf	GPIO_pIN_WRITE_LOGIC@ret^0,c
  6027                           
  6028                           ;MKAL_layer/gpio/pro_gpio.c: 55:     }
  6029   002706  EFED  F013         	goto	l5663
  6030   00270A                     l5655:
  6031                           
  6032                           ;MKAL_layer/gpio/pro_gpio.c: 59:                 (*lat_regisrers[config_pin->port] &= ~(
      +                          (uint8)1 << config_pin->pin));
  6033   00270A  5002               	movf	GPIO_pIN_WRITE_LOGIC@config_pin^0,w,c
  6034   00270C  6ED9               	movwf	fsr2l,c
  6035   00270E  6ADA               	clrf	fsr2h,c
  6036   002710  30DF               	rrcf	223,w,c
  6037   002712  32E8               	rrcf	wreg,f,c
  6038   002714  32E8               	rrcf	wreg,f,c
  6039   002716  0B07               	andlw	7
  6040   002718  6E04               	movwf	??_GPIO_pIN_WRITE_LOGIC^0,c
  6041   00271A  0E01               	movlw	1
  6042   00271C  6E05               	movwf	(??_GPIO_pIN_WRITE_LOGIC+1)^0,c
  6043   00271E  2A04               	incf	??_GPIO_pIN_WRITE_LOGIC^0,f,c
  6044   002720  EF94  F013         	goto	u4404
  6045   002724                     u4405:
  6046   002724  90D8               	bcf	status,0,c
  6047   002726  3605               	rlcf	(??_GPIO_pIN_WRITE_LOGIC+1)^0,f,c
  6048   002728                     u4404:
  6049   002728  2E04               	decfsz	??_GPIO_pIN_WRITE_LOGIC^0,f,c
  6050   00272A  EF92  F013         	goto	u4405
  6051   00272E  5005               	movf	(??_GPIO_pIN_WRITE_LOGIC+1)^0,w,c
  6052   002730  0AFF               	xorlw	255
  6053   002732  6E06               	movwf	(??_GPIO_pIN_WRITE_LOGIC+2)^0,c
  6054   002734  5002               	movf	GPIO_pIN_WRITE_LOGIC@config_pin^0,w,c
  6055   002736  6ED9               	movwf	fsr2l,c
  6056   002738  6ADA               	clrf	fsr2h,c
  6057   00273A  50DF               	movf	223,w,c
  6058   00273C  0B07               	andlw	7
  6059   00273E  0D02               	mullw	2
  6060   002740  50F3               	movf	243,w,c
  6061   002742  0F8A               	addlw	low _lat_regisrers
  6062   002744  6ED9               	movwf	fsr2l,c
  6063   002746  6ADA               	clrf	fsr2h,c
  6064   002748  CFDE F007          	movff	postinc2,??_GPIO_pIN_WRITE_LOGIC+3
  6065   00274C  CFDD F008          	movff	postdec2,??_GPIO_pIN_WRITE_LOGIC+4
  6066   002750  C007  FFD9         	movff	??_GPIO_pIN_WRITE_LOGIC+3,fsr2l
  6067   002754  C008  FFDA         	movff	??_GPIO_pIN_WRITE_LOGIC+4,fsr2h
  6068   002758  5006               	movf	(??_GPIO_pIN_WRITE_LOGIC+2)^0,w,c
  6069   00275A  16DF               	andwf	indf2,f,c
  6070                           
  6071                           ;MKAL_layer/gpio/pro_gpio.c: 60:                 break;
  6072   00275C  EFED  F013         	goto	l5663
  6073   002760                     l5657:
  6074                           
  6075                           ;MKAL_layer/gpio/pro_gpio.c: 62:                 (*lat_regisrers[config_pin->port] |= ((
      +                          uint8)1 << config_pin->pin));
  6076   002760  5002               	movf	GPIO_pIN_WRITE_LOGIC@config_pin^0,w,c
  6077   002762  6ED9               	movwf	fsr2l,c
  6078   002764  6ADA               	clrf	fsr2h,c
  6079   002766  30DF               	rrcf	223,w,c
  6080   002768  32E8               	rrcf	wreg,f,c
  6081   00276A  32E8               	rrcf	wreg,f,c
  6082   00276C  0B07               	andlw	7
  6083   00276E  6E04               	movwf	??_GPIO_pIN_WRITE_LOGIC^0,c
  6084   002770  0E01               	movlw	1
  6085   002772  6E05               	movwf	(??_GPIO_pIN_WRITE_LOGIC+1)^0,c
  6086   002774  2A04               	incf	??_GPIO_pIN_WRITE_LOGIC^0,f,c
  6087   002776  EFBF  F013         	goto	u4414
  6088   00277A                     u4415:
  6089   00277A  90D8               	bcf	status,0,c
  6090   00277C  3605               	rlcf	(??_GPIO_pIN_WRITE_LOGIC+1)^0,f,c
  6091   00277E                     u4414:
  6092   00277E  2E04               	decfsz	??_GPIO_pIN_WRITE_LOGIC^0,f,c
  6093   002780  EFBD  F013         	goto	u4415
  6094   002784  5002               	movf	GPIO_pIN_WRITE_LOGIC@config_pin^0,w,c
  6095   002786  6ED9               	movwf	fsr2l,c
  6096   002788  6ADA               	clrf	fsr2h,c
  6097   00278A  50DF               	movf	223,w,c
  6098   00278C  0B07               	andlw	7
  6099   00278E  0D02               	mullw	2
  6100   002790  50F3               	movf	243,w,c
  6101   002792  0F8A               	addlw	low _lat_regisrers
  6102   002794  6ED9               	movwf	fsr2l,c
  6103   002796  6ADA               	clrf	fsr2h,c
  6104   002798  CFDE F006          	movff	postinc2,??_GPIO_pIN_WRITE_LOGIC+2
  6105   00279C  CFDD F007          	movff	postdec2,??_GPIO_pIN_WRITE_LOGIC+3
  6106   0027A0  C006  FFD9         	movff	??_GPIO_pIN_WRITE_LOGIC+2,fsr2l
  6107   0027A4  C007  FFDA         	movff	??_GPIO_pIN_WRITE_LOGIC+3,fsr2h
  6108   0027A8  5005               	movf	(??_GPIO_pIN_WRITE_LOGIC+1)^0,w,c
  6109   0027AA  12DF               	iorwf	indf2,f,c
  6110                           
  6111                           ;MKAL_layer/gpio/pro_gpio.c: 63:                 break;
  6112   0027AC  EFED  F013         	goto	l5663
  6113   0027B0                     l5661:
  6114   0027B0  5003               	movf	GPIO_pIN_WRITE_LOGIC@logic^0,w,c
  6115   0027B2  6E04               	movwf	??_GPIO_pIN_WRITE_LOGIC^0,c
  6116   0027B4  6A05               	clrf	(??_GPIO_pIN_WRITE_LOGIC+1)^0,c
  6117                           
  6118                           ; Switch on 2 bytes has been partitioned into a top level switch of size 1, and 1 sub-sw
      +                          itches
  6119                           ; Switch size 1, requested type "simple"
  6120                           ; Number of cases is 1, Range of values is 0 to 0
  6121                           ; switch strategies available:
  6122                           ; Name         Instructions Cycles
  6123                           ; simple_byte            4     3 (average)
  6124                           ;	Chosen strategy is simple_byte
  6125   0027B6  5005               	movf	(??_GPIO_pIN_WRITE_LOGIC+1)^0,w,c
  6126   0027B8  0A00               	xorlw	0	; case 0
  6127   0027BA  B4D8               	btfsc	status,2,c
  6128   0027BC  EFE2  F013         	goto	l8437
  6129   0027C0  EF81  F013         	goto	l5653
  6130   0027C4                     l8437:
  6131                           
  6132                           ; Switch size 1, requested type "simple"
  6133                           ; Number of cases is 2, Range of values is 0 to 1
  6134                           ; switch strategies available:
  6135                           ; Name         Instructions Cycles
  6136                           ; simple_byte            7     4 (average)
  6137                           ;	Chosen strategy is simple_byte
  6138   0027C4  5004               	movf	??_GPIO_pIN_WRITE_LOGIC^0,w,c
  6139   0027C6  0A00               	xorlw	0	; case 0
  6140   0027C8  B4D8               	btfsc	status,2,c
  6141   0027CA  EF85  F013         	goto	l5655
  6142   0027CE  0A01               	xorlw	1	; case 1
  6143   0027D0  B4D8               	btfsc	status,2,c
  6144   0027D2  EFB0  F013         	goto	l5657
  6145   0027D6  EF81  F013         	goto	l5653
  6146   0027DA                     l5663:
  6147                           
  6148                           ;MKAL_layer/gpio/pro_gpio.c: 67:     return ret;
  6149   0027DA  5009               	movf	GPIO_pIN_WRITE_LOGIC@ret^0,w,c
  6150   0027DC  0012               	return		;funcret
  6151   0027DE                     __end_of_GPIO_pIN_WRITE_LOGIC:
  6152                           	callstack 0
  6153                           
  6154 ;; *************** function _measure_distance_ *****************
  6155 ;; Defined at:
  6156 ;;		line 39 in file "ECU_layer/ultrasonic/hal_ultrasonic.c"
  6157 ;; Parameters:    Size  Location     Type
  6158 ;;  ultra_pins      1    8[COMRAM] PTR struct .
  6159 ;;		 -> ultra_pins(2), 
  6160 ;; Auto vars:     Size  Location     Type
  6161 ;;  pulse_width     2    9[COMRAM] unsigned short 
  6162 ;;  variable        1   11[COMRAM] unsigned char 
  6163 ;; Return value:  Size  Location     Type
  6164 ;;                  1    wreg      unsigned char 
  6165 ;; Registers used:
  6166 ;;		wreg, fsr1l, fsr1h, fsr2l, fsr2h, status,2, status,0, prodl, prodh, cstack
  6167 ;; Tracked objects:
  6168 ;;		On entry : 0/0
  6169 ;;		On exit  : 0/0
  6170 ;;		Unchanged: 0/0
  6171 ;; Data sizes:     COMRAM   BANK0   BANK1   BANK2   BANK3   BANK4   BANK5   BANK6   BANK7   BANK8   BANK9  BANK10  BANK1
      +1  BANK12  BANK13  BANK14  BANK15
  6172 ;;      Params:         1       0       0       0       0       0       0       0       0       0       0       0       
      +0       0       0       0       0
  6173 ;;      Locals:         3       0       0       0       0       0       0       0       0       0       0       0       
      +0       0       0       0       0
  6174 ;;      Temps:          0       0       0       0       0       0       0       0       0       0       0       0       
      +0       0       0       0       0
  6175 ;;      Totals:         4       0       0       0       0       0       0       0       0       0       0       0       
      +0       0       0       0       0
  6176 ;;Total ram usage:        4 bytes
  6177 ;; Hardware stack levels used: 1
  6178 ;; Hardware stack levels required when called: 3
  6179 ;; This function calls:
  6180 ;;		_GPIO_pIN_READ_LOGIC
  6181 ;;		___lwdiv
  6182 ;; This function is called by:
  6183 ;;		_distance_ultrasonic
  6184 ;; This function uses a non-reentrant model
  6185 ;;
  6186                           
  6187                           	psect	text30
  6188   002BA4                     __ptext30:
  6189                           	callstack 0
  6190   002BA4                     _measure_distance_:
  6191                           	callstack 26
  6192   002BA4                     
  6193                           ;ECU_layer/ultrasonic/hal_ultrasonic.c: 41:     uint8 variable = 0;
  6194   002BA4  0E00               	movlw	0
  6195   002BA6  6E0C               	movwf	measure_distance_@variable^0,c
  6196   002BA8                     
  6197                           ;ECU_layer/ultrasonic/hal_ultrasonic.c: 42:     GPIO_pIN_READ_LOGIC(&(ultra_pins->ECHO_p
      +                          in),&variable);
  6198   002BA8  2809               	incf	measure_distance_@ultra_pins^0,w,c
  6199   002BAA  6E02               	movwf	GPIO_pIN_READ_LOGIC@config_pin^0,c
  6200   002BAC  0E0C               	movlw	low measure_distance_@variable
  6201   002BAE  6E03               	movwf	GPIO_pIN_READ_LOGIC@logic^0,c
  6202   002BB0  ECE5  F014         	call	_GPIO_pIN_READ_LOGIC	;wreg free
  6203                           
  6204                           ;ECU_layer/ultrasonic/hal_ultrasonic.c: 43:     while (!variable){
  6205   002BB4  EFE2  F015         	goto	l6411
  6206   002BB8                     l6409:
  6207                           
  6208                           ;ECU_layer/ultrasonic/hal_ultrasonic.c: 44:         GPIO_pIN_READ_LOGIC(&(ultra_pins->EC
      +                          HO_pin),&variable);
  6209   002BB8  2809               	incf	measure_distance_@ultra_pins^0,w,c
  6210   002BBA  6E02               	movwf	GPIO_pIN_READ_LOGIC@config_pin^0,c
  6211   002BBC  0E0C               	movlw	low measure_distance_@variable
  6212   002BBE  6E03               	movwf	GPIO_pIN_READ_LOGIC@logic^0,c
  6213   002BC0  ECE5  F014         	call	_GPIO_pIN_READ_LOGIC	;wreg free
  6214   002BC4                     l6411:
  6215                           
  6216                           ;ECU_layer/ultrasonic/hal_ultrasonic.c: 43:     while (!variable){
  6217   002BC4  500C               	movf	measure_distance_@variable^0,w,c
  6218   002BC6  B4D8               	btfsc	status,2,c
  6219   002BC8  EFE8  F015         	goto	u5681
  6220   002BCC  EFEA  F015         	goto	u5680
  6221   002BD0                     u5681:
  6222   002BD0  EFDC  F015         	goto	l6409
  6223   002BD4                     u5680:
  6224   002BD4                     
  6225                           ;ECU_layer/ultrasonic/hal_ultrasonic.c: 46:     TMR1 = 0;
  6226   002BD4  0E00               	movlw	0
  6227   002BD6  6ECF               	movwf	207,c	;volatile
  6228   002BD8  0E00               	movlw	0
  6229   002BDA  6ECE               	movwf	206,c	;volatile
  6230   002BDC                     
  6231                           ;ECU_layer/ultrasonic/hal_ultrasonic.c: 47:     (T1CONbits.TMR1ON =1);
  6232   002BDC  80CD               	bsf	205,0,c	;volatile
  6233                           
  6234                           ;ECU_layer/ultrasonic/hal_ultrasonic.c: 48:     while (variable) {
  6235   002BDE  EF04  F016         	goto	l6423
  6236   002BE2                     l6417:
  6237                           
  6238                           ;ECU_layer/ultrasonic/hal_ultrasonic.c: 49:         GPIO_pIN_READ_LOGIC(&(ultra_pins->EC
      +                          HO_pin),&variable);
  6239   002BE2  2809               	incf	measure_distance_@ultra_pins^0,w,c
  6240   002BE4  6E02               	movwf	GPIO_pIN_READ_LOGIC@config_pin^0,c
  6241   002BE6  0E0C               	movlw	low measure_distance_@variable
  6242   002BE8  6E03               	movwf	GPIO_pIN_READ_LOGIC@logic^0,c
  6243   002BEA  ECE5  F014         	call	_GPIO_pIN_READ_LOGIC	;wreg free
  6244   002BEE                     
  6245                           ;ECU_layer/ultrasonic/hal_ultrasonic.c: 50:         if (TMR1 > 60000)
  6246   002BEE  0E61               	movlw	97
  6247   002BF0  5CCE               	subwf	206,w,c	;volatile
  6248   002BF2  0EEA               	movlw	234
  6249   002BF4  58CF               	subwfb	207,w,c	;volatile
  6250   002BF6  A0D8               	btfss	status,0,c
  6251   002BF8  EF00  F016         	goto	u5691
  6252   002BFC  EF02  F016         	goto	u5690
  6253   002C00                     u5691:
  6254   002C00  EF04  F016         	goto	l6423
  6255   002C04                     u5690:
  6256   002C04  EF0C  F016         	goto	l358
  6257   002C08                     l6423:
  6258                           
  6259                           ;ECU_layer/ultrasonic/hal_ultrasonic.c: 48:     while (variable) {
  6260   002C08  500C               	movf	measure_distance_@variable^0,w,c
  6261   002C0A  A4D8               	btfss	status,2,c
  6262   002C0C  EF0A  F016         	goto	u5701
  6263   002C10  EF0C  F016         	goto	u5700
  6264   002C14                     u5701:
  6265   002C14  EFF1  F015         	goto	l6417
  6266   002C18                     u5700:
  6267   002C18                     l358:
  6268                           
  6269                           ;ECU_layer/ultrasonic/hal_ultrasonic.c: 53:     pulse_width = TMR1;
  6270   002C18  CFCE F00A          	movff	4046,measure_distance_@pulse_width	;volatile
  6271   002C1C  CFCF F00B          	movff	4047,measure_distance_@pulse_width+1	;volatile
  6272   002C20                     
  6273                           ;ECU_layer/ultrasonic/hal_ultrasonic.c: 56:     return (uint16)(pulse_width / 58);
  6274   002C20  C00A  F002         	movff	measure_distance_@pulse_width,___lwdiv@dividend
  6275   002C24  C00B  F003         	movff	measure_distance_@pulse_width+1,___lwdiv@dividend+1
  6276   002C28  0E00               	movlw	0
  6277   002C2A  6E05               	movwf	(___lwdiv@divisor+1)^0,c
  6278   002C2C  0E3A               	movlw	58
  6279   002C2E  6E04               	movwf	___lwdiv@divisor^0,c
  6280   002C30  ECD9  F016         	call	___lwdiv	;wreg free
  6281   002C34  5002               	movf	?___lwdiv^0,w,c
  6282   002C36  0012               	return		;funcret
  6283   002C38                     __end_of_measure_distance_:
  6284                           	callstack 0
  6285                           
  6286 ;; *************** function ___lwdiv *****************
  6287 ;; Defined at:
  6288 ;;		line 7 in file "C:\Program Files\Microchip\xc8\v2.45\pic\sources\c99\common\lwdiv.c"
  6289 ;; Parameters:    Size  Location     Type
  6290 ;;  dividend        2    1[COMRAM] unsigned int 
  6291 ;;  divisor         2    3[COMRAM] unsigned int 
  6292 ;; Auto vars:     Size  Location     Type
  6293 ;;  quotient        2    5[COMRAM] unsigned int 
  6294 ;;  counter         1    7[COMRAM] unsigned char 
  6295 ;; Return value:  Size  Location     Type
  6296 ;;                  2    1[COMRAM] unsigned int 
  6297 ;; Registers used:
  6298 ;;		wreg, status,2, status,0
  6299 ;; Tracked objects:
  6300 ;;		On entry : 0/0
  6301 ;;		On exit  : 0/0
  6302 ;;		Unchanged: 0/0
  6303 ;; Data sizes:     COMRAM   BANK0   BANK1   BANK2   BANK3   BANK4   BANK5   BANK6   BANK7   BANK8   BANK9  BANK10  BANK1
      +1  BANK12  BANK13  BANK14  BANK15
  6304 ;;      Params:         4       0       0       0       0       0       0       0       0       0       0       0       
      +0       0       0       0       0
  6305 ;;      Locals:         3       0       0       0       0       0       0       0       0       0       0       0       
      +0       0       0       0       0
  6306 ;;      Temps:          0       0       0       0       0       0       0       0       0       0       0       0       
      +0       0       0       0       0
  6307 ;;      Totals:         7       0       0       0       0       0       0       0       0       0       0       0       
      +0       0       0       0       0
  6308 ;;Total ram usage:        7 bytes
  6309 ;; Hardware stack levels used: 1
  6310 ;; Hardware stack levels required when called: 2
  6311 ;; This function calls:
  6312 ;;		Nothing
  6313 ;; This function is called by:
  6314 ;;		_measure_distance_
  6315 ;; This function uses a non-reentrant model
  6316 ;;
  6317                           
  6318                           	psect	text31
  6319   002DB2                     __ptext31:
  6320                           	callstack 0
  6321   002DB2                     ___lwdiv:
  6322                           	callstack 26
  6323   002DB2  0E00               	movlw	0
  6324   002DB4  6E07               	movwf	(___lwdiv@quotient+1)^0,c
  6325   002DB6  0E00               	movlw	0
  6326   002DB8  6E06               	movwf	___lwdiv@quotient^0,c
  6327   002DBA  5004               	movf	___lwdiv@divisor^0,w,c
  6328   002DBC  1005               	iorwf	(___lwdiv@divisor+1)^0,w,c
  6329   002DBE  B4D8               	btfsc	status,2,c
  6330   002DC0  EFE4  F016         	goto	u5481
  6331   002DC4  EFE6  F016         	goto	u5480
  6332   002DC8                     u5481:
  6333   002DC8  EF0E  F017         	goto	l2234
  6334   002DCC                     u5480:
  6335   002DCC  0E01               	movlw	1
  6336   002DCE  6E08               	movwf	___lwdiv@counter^0,c
  6337   002DD0  EFEE  F016         	goto	l6225
  6338   002DD4                     l6223:
  6339   002DD4  90D8               	bcf	status,0,c
  6340   002DD6  3604               	rlcf	___lwdiv@divisor^0,f,c
  6341   002DD8  3605               	rlcf	(___lwdiv@divisor+1)^0,f,c
  6342   002DDA  2A08               	incf	___lwdiv@counter^0,f,c
  6343   002DDC                     l6225:
  6344   002DDC  AE05               	btfss	(___lwdiv@divisor+1)^0,7,c
  6345   002DDE  EFF3  F016         	goto	u5491
  6346   002DE2  EFF5  F016         	goto	u5490
  6347   002DE6                     u5491:
  6348   002DE6  EFEA  F016         	goto	l6223
  6349   002DEA                     u5490:
  6350   002DEA                     l6227:
  6351   002DEA  90D8               	bcf	status,0,c
  6352   002DEC  3606               	rlcf	___lwdiv@quotient^0,f,c
  6353   002DEE  3607               	rlcf	(___lwdiv@quotient+1)^0,f,c
  6354   002DF0  5004               	movf	___lwdiv@divisor^0,w,c
  6355   002DF2  5C02               	subwf	___lwdiv@dividend^0,w,c
  6356   002DF4  5005               	movf	(___lwdiv@divisor+1)^0,w,c
  6357   002DF6  5803               	subwfb	(___lwdiv@dividend+1)^0,w,c
  6358   002DF8  A0D8               	btfss	status,0,c
  6359   002DFA  EF01  F017         	goto	u5501
  6360   002DFE  EF03  F017         	goto	u5500
  6361   002E02                     u5501:
  6362   002E02  EF08  F017         	goto	l6235
  6363   002E06                     u5500:
  6364   002E06  5004               	movf	___lwdiv@divisor^0,w,c
  6365   002E08  5E02               	subwf	___lwdiv@dividend^0,f,c
  6366   002E0A  5005               	movf	(___lwdiv@divisor+1)^0,w,c
  6367   002E0C  5A03               	subwfb	(___lwdiv@dividend+1)^0,f,c
  6368   002E0E  8006               	bsf	___lwdiv@quotient^0,0,c
  6369   002E10                     l6235:
  6370   002E10  90D8               	bcf	status,0,c
  6371   002E12  3205               	rrcf	(___lwdiv@divisor+1)^0,f,c
  6372   002E14  3204               	rrcf	___lwdiv@divisor^0,f,c
  6373   002E16  2E08               	decfsz	___lwdiv@counter^0,f,c
  6374   002E18  EFF5  F016         	goto	l6227
  6375   002E1C                     l2234:
  6376   002E1C  C006  F002         	movff	___lwdiv@quotient,?___lwdiv
  6377   002E20  C007  F003         	movff	___lwdiv@quotient+1,?___lwdiv+1
  6378   002E24  0012               	return		;funcret
  6379   002E26                     __end_of___lwdiv:
  6380                           	callstack 0
  6381                           
  6382 ;; *************** function _GPIO_pIN_READ_LOGIC *****************
  6383 ;; Defined at:
  6384 ;;		line 87 in file "MKAL_layer/gpio/pro_gpio.c"
  6385 ;; Parameters:    Size  Location     Type
  6386 ;;  config_pin      1    1[COMRAM] PTR const struct .
  6387 ;;		 -> ultra_pins$ECHO_pin(1), ultra_pins(2), matrix_keypad$keymap_colums_pins(4), matrix_keypad(8), 
  6388 ;;  logic           1    2[COMRAM] PTR enum E2980
  6389 ;;		 -> measure_distance_@variable(1), keypad_get_value@colum_logic(1), button_read_state@logic_button(1), 
  6390 ;; Auto vars:     Size  Location     Type
  6391 ;;  ret             1    7[COMRAM] unsigned char 
  6392 ;; Return value:  Size  Location     Type
  6393 ;;                  1    wreg      unsigned char 
  6394 ;; Registers used:
  6395 ;;		wreg, fsr1l, fsr1h, fsr2l, fsr2h, status,2, status,0, prodl, prodh
  6396 ;; Tracked objects:
  6397 ;;		On entry : 0/0
  6398 ;;		On exit  : 0/0
  6399 ;;		Unchanged: 0/0
  6400 ;; Data sizes:     COMRAM   BANK0   BANK1   BANK2   BANK3   BANK4   BANK5   BANK6   BANK7   BANK8   BANK9  BANK10  BANK1
      +1  BANK12  BANK13  BANK14  BANK15
  6401 ;;      Params:         2       0       0       0       0       0       0       0       0       0       0       0       
      +0       0       0       0       0
  6402 ;;      Locals:         1       0       0       0       0       0       0       0       0       0       0       0       
      +0       0       0       0       0
  6403 ;;      Temps:          4       0       0       0       0       0       0       0       0       0       0       0       
      +0       0       0       0       0
  6404 ;;      Totals:         7       0       0       0       0       0       0       0       0       0       0       0       
      +0       0       0       0       0
  6405 ;;Total ram usage:        7 bytes
  6406 ;; Hardware stack levels used: 1
  6407 ;; Hardware stack levels required when called: 2
  6408 ;; This function calls:
  6409 ;;		Nothing
  6410 ;; This function is called by:
  6411 ;;		_keypad_get_value
  6412 ;;		_measure_distance_
  6413 ;;		_button_read_state
  6414 ;; This function uses a non-reentrant model
  6415 ;;
  6416                           
  6417                           	psect	text32
  6418   0029CA                     __ptext32:
  6419                           	callstack 0
  6420   0029CA                     _GPIO_pIN_READ_LOGIC:
  6421                           	callstack 27
  6422   0029CA                     
  6423                           ;MKAL_layer/gpio/pro_gpio.c: 87: Std_ReturnType GPIO_pIN_READ_LOGIC (const pin_config_t 
      +                          *config_pin ,logic_t *logic);MKAL_layer/gpio/pro_gpio.c: 88: {;MKAL_layer/gpio/pro_gpio.
      +                          c: 89:     Std_ReturnType ret =(Std_ReturnType)0x01;
  6424   0029CA  0E01               	movlw	1
  6425   0029CC  6E08               	movwf	GPIO_pIN_READ_LOGIC@ret^0,c
  6426                           
  6427                           ;MKAL_layer/gpio/pro_gpio.c: 90:     if ((((void*)0) == config_pin) || (config_pin->pin 
      +                          > 8 -1) || (((void*)0) == logic)){
  6428   0029CE  5002               	movf	GPIO_pIN_READ_LOGIC@config_pin^0,w,c
  6429   0029D0  B4D8               	btfsc	status,2,c
  6430   0029D2  EFED  F014         	goto	u5211
  6431   0029D6  EFEF  F014         	goto	u5210
  6432   0029DA                     u5211:
  6433   0029DA  EF07  F015         	goto	l6107
  6434   0029DE                     u5210:
  6435   0029DE  5002               	movf	GPIO_pIN_READ_LOGIC@config_pin^0,w,c
  6436   0029E0  6ED9               	movwf	fsr2l,c
  6437   0029E2  6ADA               	clrf	fsr2h,c
  6438   0029E4  30DF               	rrcf	223,w,c
  6439   0029E6  32E8               	rrcf	wreg,f,c
  6440   0029E8  32E8               	rrcf	wreg,f,c
  6441   0029EA  0B07               	andlw	7
  6442   0029EC  6E04               	movwf	??_GPIO_pIN_READ_LOGIC^0,c
  6443   0029EE  0E08               	movlw	8
  6444   0029F0  6004               	cpfslt	??_GPIO_pIN_READ_LOGIC^0,c
  6445   0029F2  EFFD  F014         	goto	u5221
  6446   0029F6  EFFF  F014         	goto	u5220
  6447   0029FA                     u5221:
  6448   0029FA  EF07  F015         	goto	l6107
  6449   0029FE                     u5220:
  6450   0029FE  5003               	movf	GPIO_pIN_READ_LOGIC@logic^0,w,c
  6451   002A00  A4D8               	btfss	status,2,c
  6452   002A02  EF05  F015         	goto	u5231
  6453   002A06  EF07  F015         	goto	u5230
  6454   002A0A                     u5231:
  6455   002A0A  EF0B  F015         	goto	l6109
  6456   002A0E                     u5230:
  6457   002A0E                     l6107:
  6458                           
  6459                           ;MKAL_layer/gpio/pro_gpio.c: 91:         ret =(Std_ReturnType)0x00;
  6460   002A0E  0E00               	movlw	0
  6461   002A10  6E08               	movwf	GPIO_pIN_READ_LOGIC@ret^0,c
  6462                           
  6463                           ;MKAL_layer/gpio/pro_gpio.c: 92:     }
  6464   002A12  EF35  F015         	goto	l6111
  6465   002A16                     l6109:
  6466                           
  6467                           ;MKAL_layer/gpio/pro_gpio.c: 94:         *logic =((*port_regisrers[config_pin->port] >> 
      +                          config_pin->pin) & (uint8)1);
  6468   002A16  5003               	movf	GPIO_pIN_READ_LOGIC@logic^0,w,c
  6469   002A18  6ED9               	movwf	fsr2l,c
  6470   002A1A  6ADA               	clrf	fsr2h,c
  6471   002A1C  5002               	movf	GPIO_pIN_READ_LOGIC@config_pin^0,w,c
  6472   002A1E  6EE1               	movwf	fsr1l,c
  6473   002A20  6AE2               	clrf	fsr1h,c
  6474   002A22  30E7               	rrcf	231,w,c
  6475   002A24  32E8               	rrcf	wreg,f,c
  6476   002A26  32E8               	rrcf	wreg,f,c
  6477   002A28  0B07               	andlw	7
  6478   002A2A  6E04               	movwf	??_GPIO_pIN_READ_LOGIC^0,c
  6479   002A2C  5002               	movf	GPIO_pIN_READ_LOGIC@config_pin^0,w,c
  6480   002A2E  6EE1               	movwf	fsr1l,c
  6481   002A30  6AE2               	clrf	fsr1h,c
  6482   002A32  50E7               	movf	231,w,c
  6483   002A34  0B07               	andlw	7
  6484   002A36  0D02               	mullw	2
  6485   002A38  50F3               	movf	243,w,c
  6486   002A3A  0F94               	addlw	low _port_regisrers
  6487   002A3C  6EE1               	movwf	fsr1l,c
  6488   002A3E  6AE2               	clrf	fsr1h,c
  6489   002A40  CFE6 F005          	movff	postinc1,??_GPIO_pIN_READ_LOGIC+1
  6490   002A44  CFE5 F006          	movff	postdec1,??_GPIO_pIN_READ_LOGIC+2
  6491   002A48  C005  FFE1         	movff	??_GPIO_pIN_READ_LOGIC+1,fsr1l
  6492   002A4C  C006  FFE2         	movff	??_GPIO_pIN_READ_LOGIC+2,fsr1h
  6493   002A50  50E7               	movf	indf1,w,c
  6494   002A52  6E07               	movwf	(??_GPIO_pIN_READ_LOGIC+3)^0,c
  6495   002A54  2A04               	incf	??_GPIO_pIN_READ_LOGIC^0,f,c
  6496   002A56  EF2F  F015         	goto	u5244
  6497   002A5A                     u5245:
  6498   002A5A  90D8               	bcf	status,0,c
  6499   002A5C  3207               	rrcf	(??_GPIO_pIN_READ_LOGIC+3)^0,f,c
  6500   002A5E                     u5244:
  6501   002A5E  2E04               	decfsz	??_GPIO_pIN_READ_LOGIC^0,f,c
  6502   002A60  EF2D  F015         	goto	u5245
  6503   002A64  5007               	movf	(??_GPIO_pIN_READ_LOGIC+3)^0,w,c
  6504   002A66  0B01               	andlw	1
  6505   002A68  6EDF               	movwf	indf2,c
  6506   002A6A                     l6111:
  6507                           
  6508                           ;MKAL_layer/gpio/pro_gpio.c: 96:     return ret;
  6509   002A6A  5008               	movf	GPIO_pIN_READ_LOGIC@ret^0,w,c
  6510   002A6C  0012               	return		;funcret
  6511   002A6E                     __end_of_GPIO_pIN_READ_LOGIC:
  6512                           	callstack 0
  6513                           
  6514 ;; *************** function _MSSP_I2C_Master_call_slave *****************
  6515 ;; Defined at:
  6516 ;;		line 262 in file "MKAL_layer/I2C/hal_i2c.c"
  6517 ;; Parameters:    Size  Location     Type
  6518 ;;  i2c_obj         1    4[COMRAM] PTR const struct .
  6519 ;;		 -> mssp_i2c(15), 
  6520 ;;  address         1    5[COMRAM] unsigned char 
  6521 ;;  data            1    6[COMRAM] unsigned char 
  6522 ;;  _ack            1    7[COMRAM] PTR unsigned char 
  6523 ;;		 -> _ack(1), 
  6524 ;; Auto vars:     Size  Location     Type
  6525 ;;		None
  6526 ;; Return value:  Size  Location     Type
  6527 ;;                  1    wreg      void 
  6528 ;; Registers used:
  6529 ;;		wreg, fsr2l, fsr2h, status,2, status,0, cstack
  6530 ;; Tracked objects:
  6531 ;;		On entry : 0/0
  6532 ;;		On exit  : 0/0
  6533 ;;		Unchanged: 0/0
  6534 ;; Data sizes:     COMRAM   BANK0   BANK1   BANK2   BANK3   BANK4   BANK5   BANK6   BANK7   BANK8   BANK9  BANK10  BANK1
      +1  BANK12  BANK13  BANK14  BANK15
  6535 ;;      Params:         4       0       0       0       0       0       0       0       0       0       0       0       
      +0       0       0       0       0
  6536 ;;      Locals:         0       0       0       0       0       0       0       0       0       0       0       0       
      +0       0       0       0       0
  6537 ;;      Temps:          0       0       0       0       0       0       0       0       0       0       0       0       
      +0       0       0       0       0
  6538 ;;      Totals:         4       0       0       0       0       0       0       0       0       0       0       0       
      +0       0       0       0       0
  6539 ;;Total ram usage:        4 bytes
  6540 ;; Hardware stack levels used: 1
  6541 ;; Hardware stack levels required when called: 3
  6542 ;; This function calls:
  6543 ;;		_MSSP_I2C_Master_Send_Start
  6544 ;;		_MSSP_I2C_Master_Send_Stop
  6545 ;;		_MSSP_I2C_Master_Write_Blocking
  6546 ;; This function is called by:
  6547 ;;		_main
  6548 ;; This function uses a non-reentrant model
  6549 ;;
  6550                           
  6551                           	psect	text33
  6552   003288                     __ptext33:
  6553                           	callstack 0
  6554   003288                     _MSSP_I2C_Master_call_slave:
  6555                           	callstack 27
  6556   003288                     
  6557                           ;MKAL_layer/I2C/hal_i2c.c: 263:     MSSP_I2C_Master_Send_Start(i2c_obj);
  6558   003288  C005  F002         	movff	MSSP_I2C_Master_call_slave@i2c_obj,MSSP_I2C_Master_Send_Start@i2c_obj
  6559   00328C  EC29  F019         	call	_MSSP_I2C_Master_Send_Start	;wreg free
  6560   003290                     
  6561                           ;MKAL_layer/I2C/hal_i2c.c: 264:     MSSP_I2C_Master_Write_Blocking(i2c_obj,address,_ack)
      +                          ;
  6562   003290  C005  F002         	movff	MSSP_I2C_Master_call_slave@i2c_obj,MSSP_I2C_Master_Write_Blocking@i2c_obj
  6563   003294  C006  F003         	movff	MSSP_I2C_Master_call_slave@address,MSSP_I2C_Master_Write_Blocking@i2c_data
  6564   003298  C008  F004         	movff	MSSP_I2C_Master_call_slave@_ack,MSSP_I2C_Master_Write_Blocking@_ack
  6565   00329C  EC40  F018         	call	_MSSP_I2C_Master_Write_Blocking	;wreg free
  6566   0032A0                     
  6567                           ;MKAL_layer/I2C/hal_i2c.c: 265:     MSSP_I2C_Master_Write_Blocking(i2c_obj,data,_ack);
  6568   0032A0  C005  F002         	movff	MSSP_I2C_Master_call_slave@i2c_obj,MSSP_I2C_Master_Write_Blocking@i2c_obj
  6569   0032A4  C007  F003         	movff	MSSP_I2C_Master_call_slave@data,MSSP_I2C_Master_Write_Blocking@i2c_data
  6570   0032A8  C008  F004         	movff	MSSP_I2C_Master_call_slave@_ack,MSSP_I2C_Master_Write_Blocking@_ack
  6571   0032AC  EC40  F018         	call	_MSSP_I2C_Master_Write_Blocking	;wreg free
  6572                           
  6573                           ;MKAL_layer/I2C/hal_i2c.c: 266:     MSSP_I2C_Master_Send_Stop(i2c_obj);
  6574   0032B0  C005  F002         	movff	MSSP_I2C_Master_call_slave@i2c_obj,MSSP_I2C_Master_Send_Stop@i2c_obj
  6575   0032B4  EC0E  F019         	call	_MSSP_I2C_Master_Send_Stop	;wreg free
  6576   0032B8  0012               	return		;funcret
  6577   0032BA                     __end_of_MSSP_I2C_Master_call_slave:
  6578                           	callstack 0
  6579                           
  6580 ;; *************** function _MSSP_I2C_Master_Write_Blocking *****************
  6581 ;; Defined at:
  6582 ;;		line 164 in file "MKAL_layer/I2C/hal_i2c.c"
  6583 ;; Parameters:    Size  Location     Type
  6584 ;;  i2c_obj         1    1[COMRAM] PTR const struct .
  6585 ;;		 -> mssp_i2c(15), 
  6586 ;;  i2c_data        1    2[COMRAM] unsigned char 
  6587 ;;  _ack            1    3[COMRAM] PTR unsigned char 
  6588 ;;		 -> _ack(1), 
  6589 ;; Auto vars:     Size  Location     Type
  6590 ;;  ret             1    0        unsigned char 
  6591 ;; Return value:  Size  Location     Type
  6592 ;;                  1    wreg      unsigned char 
  6593 ;; Registers used:
  6594 ;;		wreg, fsr2l, fsr2h, status,2
  6595 ;; Tracked objects:
  6596 ;;		On entry : 0/0
  6597 ;;		On exit  : 0/0
  6598 ;;		Unchanged: 0/0
  6599 ;; Data sizes:     COMRAM   BANK0   BANK1   BANK2   BANK3   BANK4   BANK5   BANK6   BANK7   BANK8   BANK9  BANK10  BANK1
      +1  BANK12  BANK13  BANK14  BANK15
  6600 ;;      Params:         3       0       0       0       0       0       0       0       0       0       0       0       
      +0       0       0       0       0
  6601 ;;      Locals:         0       0       0       0       0       0       0       0       0       0       0       0       
      +0       0       0       0       0
  6602 ;;      Temps:          0       0       0       0       0       0       0       0       0       0       0       0       
      +0       0       0       0       0
  6603 ;;      Totals:         3       0       0       0       0       0       0       0       0       0       0       0       
      +0       0       0       0       0
  6604 ;;Total ram usage:        3 bytes
  6605 ;; Hardware stack levels used: 1
  6606 ;; Hardware stack levels required when called: 2
  6607 ;; This function calls:
  6608 ;;		Nothing
  6609 ;; This function is called by:
  6610 ;;		_MSSP_I2C_Master_read_data_in_register
  6611 ;;		_MSSP_I2C_Master_call_slave
  6612 ;;		_MSSP_I2C_Master_call_slave_read
  6613 ;; This function uses a non-reentrant model
  6614 ;;
  6615                           
  6616                           	psect	text34
  6617   003080                     __ptext34:
  6618                           	callstack 0
  6619   003080                     _MSSP_I2C_Master_Write_Blocking:
  6620                           	callstack 26
  6621   003080                     
  6622                           ;MKAL_layer/I2C/hal_i2c.c: 166:     if((((void*)0) == i2c_obj) || (((void*)0) == _ack)){
  6623   003080  5002               	movf	MSSP_I2C_Master_Write_Blocking@i2c_obj^0,w,c
  6624   003082  B4D8               	btfsc	status,2,c
  6625   003084  EF46  F018         	goto	u5291
  6626   003088  EF48  F018         	goto	u5290
  6627   00308C                     u5291:
  6628   00308C  EF50  F018         	goto	l6155
  6629   003090                     u5290:
  6630   003090  5004               	movf	MSSP_I2C_Master_Write_Blocking@_ack^0,w,c
  6631   003092  A4D8               	btfss	status,2,c
  6632   003094  EF4E  F018         	goto	u5301
  6633   003098  EF50  F018         	goto	u5300
  6634   00309C                     u5301:
  6635   00309C  EF52  F018         	goto	l830
  6636   0030A0                     u5300:
  6637   0030A0                     l6155:
  6638                           
  6639                           ;MKAL_layer/I2C/hal_i2c.c: 168:     }
  6640   0030A0  EF6E  F018         	goto	l839
  6641   0030A4                     l830:
  6642                           
  6643                           ;MKAL_layer/I2C/hal_i2c.c: 171:         SSPBUF = i2c_data;
  6644   0030A4  C003  FFC9         	movff	MSSP_I2C_Master_Write_Blocking@i2c_data,4041	;volatile
  6645   0030A8                     l834:
  6646   0030A8  B0C7               	btfsc	199,0,c	;volatile
  6647   0030AA  EF59  F018         	goto	u5311
  6648   0030AE  EF5B  F018         	goto	u5310
  6649   0030B2                     u5311:
  6650   0030B2  EF54  F018         	goto	l834
  6651   0030B6                     u5310:
  6652   0030B6                     
  6653                           ;MKAL_layer/I2C/hal_i2c.c: 175:         PIR1bits.SSPIF = 0;
  6654   0030B6  969E               	bcf	158,3,c	;volatile
  6655                           
  6656                           ;MKAL_layer/I2C/hal_i2c.c: 177:         if(0 == SSPCON2bits.ACKSTAT){
  6657   0030B8  BCC5               	btfsc	197,6,c	;volatile
  6658   0030BA  EF61  F018         	goto	u5321
  6659   0030BE  EF63  F018         	goto	u5320
  6660   0030C2                     u5321:
  6661   0030C2  EF69  F018         	goto	l6159
  6662   0030C6                     u5320:
  6663   0030C6                     
  6664                           ;MKAL_layer/I2C/hal_i2c.c: 178:             *_ack = 0;
  6665   0030C6  5004               	movf	MSSP_I2C_Master_Write_Blocking@_ack^0,w,c
  6666   0030C8  6ED9               	movwf	fsr2l,c
  6667   0030CA  6ADA               	clrf	fsr2h,c
  6668   0030CC  6ADF               	clrf	indf2,c
  6669                           
  6670                           ;MKAL_layer/I2C/hal_i2c.c: 179:         }
  6671   0030CE  EF6E  F018         	goto	l6161
  6672   0030D2                     l6159:
  6673                           
  6674                           ;MKAL_layer/I2C/hal_i2c.c: 181:             *_ack = 1;
  6675   0030D2  5004               	movf	MSSP_I2C_Master_Write_Blocking@_ack^0,w,c
  6676   0030D4  6ED9               	movwf	fsr2l,c
  6677   0030D6  6ADA               	clrf	fsr2h,c
  6678   0030D8  0E01               	movlw	1
  6679   0030DA  6EDF               	movwf	indf2,c
  6680   0030DC                     l6161:
  6681   0030DC                     l839:
  6682   0030DC  0012               	return		;funcret
  6683   0030DE                     __end_of_MSSP_I2C_Master_Write_Blocking:
  6684                           	callstack 0
  6685                           
  6686 ;; *************** function _MSSP_I2C_Master_Send_Stop *****************
  6687 ;; Defined at:
  6688 ;;		line 141 in file "MKAL_layer/I2C/hal_i2c.c"
  6689 ;; Parameters:    Size  Location     Type
  6690 ;;  i2c_obj         1    1[COMRAM] PTR const struct .
  6691 ;;		 -> mssp_i2c(15), 
  6692 ;; Auto vars:     Size  Location     Type
  6693 ;;  ret             1    0        unsigned char 
  6694 ;; Return value:  Size  Location     Type
  6695 ;;                  1    wreg      unsigned char 
  6696 ;; Registers used:
  6697 ;;		wreg, status,2
  6698 ;; Tracked objects:
  6699 ;;		On entry : 0/0
  6700 ;;		On exit  : 0/0
  6701 ;;		Unchanged: 0/0
  6702 ;; Data sizes:     COMRAM   BANK0   BANK1   BANK2   BANK3   BANK4   BANK5   BANK6   BANK7   BANK8   BANK9  BANK10  BANK1
      +1  BANK12  BANK13  BANK14  BANK15
  6703 ;;      Params:         1       0       0       0       0       0       0       0       0       0       0       0       
      +0       0       0       0       0
  6704 ;;      Locals:         0       0       0       0       0       0       0       0       0       0       0       0       
      +0       0       0       0       0
  6705 ;;      Temps:          0       0       0       0       0       0       0       0       0       0       0       0       
      +0       0       0       0       0
  6706 ;;      Totals:         1       0       0       0       0       0       0       0       0       0       0       0       
      +0       0       0       0       0
  6707 ;;Total ram usage:        1 bytes
  6708 ;; Hardware stack levels used: 1
  6709 ;; Hardware stack levels required when called: 2
  6710 ;; This function calls:
  6711 ;;		Nothing
  6712 ;; This function is called by:
  6713 ;;		_tc74_read_value
  6714 ;;		_MSSP_I2C_Master_call_slave
  6715 ;;		_MSSP_I2C_Master_call_slave_read
  6716 ;; This function uses a non-reentrant model
  6717 ;;
  6718                           
  6719                           	psect	text35
  6720   00321C                     __ptext35:
  6721                           	callstack 0
  6722   00321C                     _MSSP_I2C_Master_Send_Stop:
  6723                           	callstack 27
  6724   00321C                     
  6725                           ;MKAL_layer/I2C/hal_i2c.c: 143:     if(((void*)0) == i2c_obj){
  6726   00321C  5002               	movf	MSSP_I2C_Master_Send_Stop@i2c_obj^0,w,c
  6727   00321E  A4D8               	btfss	status,2,c
  6728   003220  EF14  F019         	goto	u5651
  6729   003224  EF16  F019         	goto	u5650
  6730   003228                     u5651:
  6731   003228  EF18  F019         	goto	l820
  6732   00322C                     u5650:
  6733   00322C                     l6385:
  6734                           
  6735                           ;MKAL_layer/I2C/hal_i2c.c: 145:     }
  6736   00322C  EF28  F019         	goto	l827
  6737   003230                     l820:
  6738                           
  6739                           ;MKAL_layer/I2C/hal_i2c.c: 148:         SSPCON2bits.PEN = 1;
  6740   003230  84C5               	bsf	197,2,c	;volatile
  6741   003232                     l822:
  6742   003232  B4C5               	btfsc	197,2,c	;volatile
  6743   003234  EF1E  F019         	goto	u5661
  6744   003238  EF20  F019         	goto	u5660
  6745   00323C                     u5661:
  6746   00323C  EF19  F019         	goto	l822
  6747   003240                     u5660:
  6748   003240                     
  6749                           ;MKAL_layer/I2C/hal_i2c.c: 152:         PIR1bits.SSPIF = 0;
  6750   003240  969E               	bcf	158,3,c	;volatile
  6751                           
  6752                           ;MKAL_layer/I2C/hal_i2c.c: 154:         if(1 == SSPSTATbits.P){
  6753   003242  A8C7               	btfss	199,4,c	;volatile
  6754   003244  EF26  F019         	goto	u5671
  6755   003248  EF28  F019         	goto	u5670
  6756   00324C                     u5671:
  6757   00324C  EF16  F019         	goto	l6385
  6758   003250                     u5670:
  6759   003250                     l827:
  6760   003250  0012               	return		;funcret
  6761   003252                     __end_of_MSSP_I2C_Master_Send_Stop:
  6762                           	callstack 0
  6763                           
  6764 ;; *************** function _MSSP_I2C_Master_Send_Start *****************
  6765 ;; Defined at:
  6766 ;;		line 101 in file "MKAL_layer/I2C/hal_i2c.c"
  6767 ;; Parameters:    Size  Location     Type
  6768 ;;  i2c_obj         1    1[COMRAM] PTR const struct .
  6769 ;;		 -> mssp_i2c(15), 
  6770 ;; Auto vars:     Size  Location     Type
  6771 ;;  ret             1    0        unsigned char 
  6772 ;; Return value:  Size  Location     Type
  6773 ;;                  1    wreg      unsigned char 
  6774 ;; Registers used:
  6775 ;;		wreg, status,2
  6776 ;; Tracked objects:
  6777 ;;		On entry : 0/0
  6778 ;;		On exit  : 0/0
  6779 ;;		Unchanged: 0/0
  6780 ;; Data sizes:     COMRAM   BANK0   BANK1   BANK2   BANK3   BANK4   BANK5   BANK6   BANK7   BANK8   BANK9  BANK10  BANK1
      +1  BANK12  BANK13  BANK14  BANK15
  6781 ;;      Params:         1       0       0       0       0       0       0       0       0       0       0       0       
      +0       0       0       0       0
  6782 ;;      Locals:         0       0       0       0       0       0       0       0       0       0       0       0       
      +0       0       0       0       0
  6783 ;;      Temps:          0       0       0       0       0       0       0       0       0       0       0       0       
      +0       0       0       0       0
  6784 ;;      Totals:         1       0       0       0       0       0       0       0       0       0       0       0       
      +0       0       0       0       0
  6785 ;;Total ram usage:        1 bytes
  6786 ;; Hardware stack levels used: 1
  6787 ;; Hardware stack levels required when called: 2
  6788 ;; This function calls:
  6789 ;;		Nothing
  6790 ;; This function is called by:
  6791 ;;		_tc74_read_value
  6792 ;;		_MSSP_I2C_Master_call_slave
  6793 ;;		_MSSP_I2C_Master_call_slave_read
  6794 ;; This function uses a non-reentrant model
  6795 ;;
  6796                           
  6797                           	psect	text36
  6798   003252                     __ptext36:
  6799                           	callstack 0
  6800   003252                     _MSSP_I2C_Master_Send_Start:
  6801                           	callstack 27
  6802   003252                     
  6803                           ;MKAL_layer/I2C/hal_i2c.c: 103:     if(((void*)0) == i2c_obj){
  6804   003252  5002               	movf	MSSP_I2C_Master_Send_Start@i2c_obj^0,w,c
  6805   003254  A4D8               	btfss	status,2,c
  6806   003256  EF2F  F019         	goto	u5601
  6807   00325A  EF31  F019         	goto	u5600
  6808   00325E                     u5601:
  6809   00325E  EF33  F019         	goto	l802
  6810   003262                     u5600:
  6811   003262                     l6359:
  6812                           
  6813                           ;MKAL_layer/I2C/hal_i2c.c: 105:     }
  6814   003262  EF43  F019         	goto	l809
  6815   003266                     l802:
  6816                           
  6817                           ;MKAL_layer/I2C/hal_i2c.c: 108:         SSPCON2bits.SEN = 1;
  6818   003266  80C5               	bsf	197,0,c	;volatile
  6819   003268                     l804:
  6820   003268  B0C5               	btfsc	197,0,c	;volatile
  6821   00326A  EF39  F019         	goto	u5611
  6822   00326E  EF3B  F019         	goto	u5610
  6823   003272                     u5611:
  6824   003272  EF34  F019         	goto	l804
  6825   003276                     u5610:
  6826   003276                     
  6827                           ;MKAL_layer/I2C/hal_i2c.c: 112:         PIR1bits.SSPIF = 0;
  6828   003276  969E               	bcf	158,3,c	;volatile
  6829                           
  6830                           ;MKAL_layer/I2C/hal_i2c.c: 114:         if(1 == SSPSTATbits.S){
  6831   003278  A6C7               	btfss	199,3,c	;volatile
  6832   00327A  EF41  F019         	goto	u5621
  6833   00327E  EF43  F019         	goto	u5620
  6834   003282                     u5621:
  6835   003282  EF31  F019         	goto	l6359
  6836   003286                     u5620:
  6837   003286                     l809:
  6838   003286  0012               	return		;funcret
  6839   003288                     __end_of_MSSP_I2C_Master_Send_Start:
  6840                           	callstack 0
  6841                           
  6842 ;; *************** function _interrupt_manager *****************
  6843 ;; Defined at:
  6844 ;;		line 153 in file "MKAL_layer/Interrupt/mcal_interrupt_manager.c"
  6845 ;; Parameters:    Size  Location     Type
  6846 ;;		None
  6847 ;; Auto vars:     Size  Location     Type
  6848 ;;		None
  6849 ;; Return value:  Size  Location     Type
  6850 ;;                  1    wreg      void 
  6851 ;; Registers used:
  6852 ;;		wreg, status,2, status,0, cstack
  6853 ;; Tracked objects:
  6854 ;;		On entry : 0/0
  6855 ;;		On exit  : 0/0
  6856 ;;		Unchanged: 0/0
  6857 ;; Data sizes:     COMRAM   BANK0   BANK1   BANK2   BANK3   BANK4   BANK5   BANK6   BANK7   BANK8   BANK9  BANK10  BANK1
      +1  BANK12  BANK13  BANK14  BANK15
  6858 ;;      Params:         0       0       0       0       0       0       0       0       0       0       0       0       
      +0       0       0       0       0
  6859 ;;      Locals:         0       0       0       0       0       0       0       0       0       0       0       0       
      +0       0       0       0       0
  6860 ;;      Temps:          0       0       0       0       0       0       0       0       0       0       0       0       
      +0       0       0       0       0
  6861 ;;      Totals:         0       0       0       0       0       0       0       0       0       0       0       0       
      +0       0       0       0       0
  6862 ;;Total ram usage:        0 bytes
  6863 ;; Hardware stack levels used: 1
  6864 ;; Hardware stack levels required when called: 1
  6865 ;; This function calls:
  6866 ;;		_ADC_handeler_funvtion
  6867 ;;		_CCP1_ISR
  6868 ;;		_CCP2_ISR
  6869 ;;		_INT0_ISR
  6870 ;;		_INT1_ISR
  6871 ;;		_INT2_ISR
  6872 ;;		_MSSP_I2C_BC_ISR
  6873 ;;		_MSSP_I2C_ISR
  6874 ;;		_RB4_ISR
  6875 ;;		_RB5_ISR
  6876 ;;		_RB6_ISR
  6877 ;;		_RB7_ISR
  6878 ;;		_TIMER0_ISR
  6879 ;;		_TIMER1_ISR
  6880 ;;		_TIMER2_ISR
  6881 ;;		_TIMER3_ISR
  6882 ;;		_USART_RX_ISR
  6883 ;;		_USART_TX_ISR
  6884 ;; This function is called by:
  6885 ;;		Interrupt level 2
  6886 ;; This function uses a non-reentrant model
  6887 ;;
  6888                           
  6889                           	psect	intcode
  6890   000008                     __pintcode:
  6891                           	callstack 0
  6892   000008                     _interrupt_manager:
  6893                           	callstack 25
  6894                           
  6895                           ;incstack = 0
  6896   000008  827E               	bsf	int$flags,1,c	;set compiler interrupt flag (level 2)
  6897   00000A  EDA2  F00D         	call	int_func,f	;refresh shadow registers
  6898                           
  6899                           	psect	intcode_body
  6900   001B44                     __pintcode_body:
  6901                           	callstack 25
  6902   001B44                     int_func:
  6903                           	callstack 25
  6904   001B44  0006               	pop		; remove dummy address from shadow register refresh
  6905   001B46                     
  6906                           ;MKAL_layer/Interrupt/mcal_interrupt_manager.c: 155:         if((1 == INTCONbits.INT0IF)
      +                           && (1 == INTCONbits.INT0IF)){
  6907   001B46  A2F2               	btfss	242,1,c	;volatile
  6908   001B48  EFA8  F00D         	goto	i2u676_41
  6909   001B4C  EFAA  F00D         	goto	i2u676_40
  6910   001B50                     i2u676_41:
  6911   001B50  EFB3  F00D         	goto	i2l1188
  6912   001B54                     i2u676_40:
  6913   001B54  A2F2               	btfss	242,1,c	;volatile
  6914   001B56  EFAF  F00D         	goto	i2u677_41
  6915   001B5A  EFB1  F00D         	goto	i2u677_40
  6916   001B5E                     i2u677_41:
  6917   001B5E  EFB3  F00D         	goto	i2l1188
  6918   001B62                     i2u677_40:
  6919   001B62                     
  6920                           ;MKAL_layer/Interrupt/mcal_interrupt_manager.c: 156:             INT0_ISR();
  6921   001B62  EC29  F01A         	call	_INT0_ISR	;wreg free
  6922   001B66                     i2l1188:
  6923                           
  6924                           ;MKAL_layer/Interrupt/mcal_interrupt_manager.c: 159:         if((1 == INTCON3bits.INT1IE
      +                          ) && (1 == INTCON3bits.INT1IF)){
  6925   001B66  A6F0               	btfss	240,3,c	;volatile
  6926   001B68  EFB8  F00D         	goto	i2u678_41
  6927   001B6C  EFBA  F00D         	goto	i2u678_40
  6928   001B70                     i2u678_41:
  6929   001B70  EFC3  F00D         	goto	i2l1190
  6930   001B74                     i2u678_40:
  6931   001B74  A0F0               	btfss	240,0,c	;volatile
  6932   001B76  EFBF  F00D         	goto	i2u679_41
  6933   001B7A  EFC1  F00D         	goto	i2u679_40
  6934   001B7E                     i2u679_41:
  6935   001B7E  EFC3  F00D         	goto	i2l1190
  6936   001B82                     i2u679_40:
  6937   001B82                     
  6938                           ;MKAL_layer/Interrupt/mcal_interrupt_manager.c: 160:             INT1_ISR();
  6939   001B82  EC27  F01A         	call	_INT1_ISR	;wreg free
  6940   001B86                     i2l1190:
  6941                           
  6942                           ;MKAL_layer/Interrupt/mcal_interrupt_manager.c: 163:         if((1 == INTCON3bits.INT2IE
      +                          ) && (1 == INTCON3bits.INT2IF)){
  6943   001B86  A8F0               	btfss	240,4,c	;volatile
  6944   001B88  EFC8  F00D         	goto	i2u680_41
  6945   001B8C  EFCA  F00D         	goto	i2u680_40
  6946   001B90                     i2u680_41:
  6947   001B90  EFD3  F00D         	goto	i2l1192
  6948   001B94                     i2u680_40:
  6949   001B94  A2F0               	btfss	240,1,c	;volatile
  6950   001B96  EFCF  F00D         	goto	i2u681_41
  6951   001B9A  EFD1  F00D         	goto	i2u681_40
  6952   001B9E                     i2u681_41:
  6953   001B9E  EFD3  F00D         	goto	i2l1192
  6954   001BA2                     i2u681_40:
  6955   001BA2                     
  6956                           ;MKAL_layer/Interrupt/mcal_interrupt_manager.c: 164:             INT2_ISR();
  6957   001BA2  EC25  F01A         	call	_INT2_ISR	;wreg free
  6958   001BA6                     i2l1192:
  6959                           
  6960                           ;MKAL_layer/Interrupt/mcal_interrupt_manager.c: 168:         if((1 == INTCONbits.RBIE) &
      +                          & (1 == INTCONbits.RBIF)
  6961   001BA6  A6F2               	btfss	242,3,c	;volatile
  6962   001BA8  EFD8  F00D         	goto	i2u682_41
  6963   001BAC  EFDA  F00D         	goto	i2u682_40
  6964   001BB0                     i2u682_41:
  6965   001BB0  EFF5  F00D         	goto	i2l1194
  6966   001BB4                     i2u682_40:
  6967   001BB4  A0F2               	btfss	242,0,c	;volatile
  6968   001BB6  EFDF  F00D         	goto	i2u683_41
  6969   001BBA  EFE1  F00D         	goto	i2u683_40
  6970   001BBE                     i2u683_41:
  6971   001BBE  EFF5  F00D         	goto	i2l1194
  6972   001BC2                     i2u683_40:
  6973   001BC2  A881               	btfss	129,4,c	;volatile
  6974   001BC4  EFE6  F00D         	goto	i2u684_41
  6975   001BC8  EFE8  F00D         	goto	i2u684_40
  6976   001BCC                     i2u684_41:
  6977   001BCC  EFF5  F00D         	goto	i2l1194
  6978   001BD0                     i2u684_40:
  6979   001BD0  0466               	decf	_flag1^0,w,c
  6980   001BD2  A4D8               	btfss	status,2,c
  6981   001BD4  EFEE  F00D         	goto	i2u685_41
  6982   001BD8  EFF0  F00D         	goto	i2u685_40
  6983   001BDC                     i2u685_41:
  6984   001BDC  EFF5  F00D         	goto	i2l1194
  6985   001BE0                     i2u685_40:
  6986   001BE0                     
  6987                           ;MKAL_layer/Interrupt/mcal_interrupt_manager.c: 169:             && (PORTBbits.RB4 == GP
      +                          IO_HIGH) && (flag1 == 1)){;MKAL_layer/Interrupt/mcal_interrupt_manager.c: 170:          
      +                             flag1 = 0;
  6988   001BE0  0E00               	movlw	0
  6989   001BE2  6E66               	movwf	_flag1^0,c
  6990   001BE4                     
  6991                           ;MKAL_layer/Interrupt/mcal_interrupt_manager.c: 171:             RB4_ISR(0);
  6992   001BE4  0E00               	movlw	0
  6993   001BE6  ECEE  F019         	call	_RB4_ISR
  6994   001BEA                     i2l1194:
  6995                           
  6996                           ;MKAL_layer/Interrupt/mcal_interrupt_manager.c: 174:         if((1 == INTCONbits.RBIE) &
      +                          & (1 == INTCONbits.RBIF)
  6997   001BEA  A6F2               	btfss	242,3,c	;volatile
  6998   001BEC  EFFA  F00D         	goto	i2u686_41
  6999   001BF0  EFFC  F00D         	goto	i2u686_40
  7000   001BF4                     i2u686_41:
  7001   001BF4  EF17  F00E         	goto	i2l1196
  7002   001BF8                     i2u686_40:
  7003   001BF8  A0F2               	btfss	242,0,c	;volatile
  7004   001BFA  EF01  F00E         	goto	i2u687_41
  7005   001BFE  EF03  F00E         	goto	i2u687_40
  7006   001C02                     i2u687_41:
  7007   001C02  EF17  F00E         	goto	i2l1196
  7008   001C06                     i2u687_40:
  7009   001C06  B881               	btfsc	129,4,c	;volatile
  7010   001C08  EF08  F00E         	goto	i2u688_41
  7011   001C0C  EF0A  F00E         	goto	i2u688_40
  7012   001C10                     i2u688_41:
  7013   001C10  EF17  F00E         	goto	i2l1196
  7014   001C14                     i2u688_40:
  7015   001C14  5066               	movf	_flag1^0,w,c
  7016   001C16  A4D8               	btfss	status,2,c
  7017   001C18  EF10  F00E         	goto	i2u689_41
  7018   001C1C  EF12  F00E         	goto	i2u689_40
  7019   001C20                     i2u689_41:
  7020   001C20  EF17  F00E         	goto	i2l1196
  7021   001C24                     i2u689_40:
  7022   001C24                     
  7023                           ;MKAL_layer/Interrupt/mcal_interrupt_manager.c: 175:             && (PORTBbits.RB4 == GP
      +                          IO_LOW) && (flag1 == 0)){;MKAL_layer/Interrupt/mcal_interrupt_manager.c: 176:           
      +                            flag1 = 1;
  7024   001C24  0E01               	movlw	1
  7025   001C26  6E66               	movwf	_flag1^0,c
  7026   001C28                     
  7027                           ;MKAL_layer/Interrupt/mcal_interrupt_manager.c: 177:             RB4_ISR(1);
  7028   001C28  0E01               	movlw	1
  7029   001C2A  ECEE  F019         	call	_RB4_ISR
  7030   001C2E                     i2l1196:
  7031                           
  7032                           ;MKAL_layer/Interrupt/mcal_interrupt_manager.c: 180:          if((1 == INTCONbits.RBIE) 
      +                          && (1 == INTCONbits.RBIF)
  7033   001C2E  A6F2               	btfss	242,3,c	;volatile
  7034   001C30  EF1C  F00E         	goto	i2u690_41
  7035   001C34  EF1E  F00E         	goto	i2u690_40
  7036   001C38                     i2u690_41:
  7037   001C38  EF39  F00E         	goto	i2l1198
  7038   001C3C                     i2u690_40:
  7039   001C3C  A0F2               	btfss	242,0,c	;volatile
  7040   001C3E  EF23  F00E         	goto	i2u691_41
  7041   001C42  EF25  F00E         	goto	i2u691_40
  7042   001C46                     i2u691_41:
  7043   001C46  EF39  F00E         	goto	i2l1198
  7044   001C4A                     i2u691_40:
  7045   001C4A  AA81               	btfss	129,5,c	;volatile
  7046   001C4C  EF2A  F00E         	goto	i2u692_41
  7047   001C50  EF2C  F00E         	goto	i2u692_40
  7048   001C54                     i2u692_41:
  7049   001C54  EF39  F00E         	goto	i2l1198
  7050   001C58                     i2u692_40:
  7051   001C58  0465               	decf	_flag2^0,w,c
  7052   001C5A  A4D8               	btfss	status,2,c
  7053   001C5C  EF32  F00E         	goto	i2u693_41
  7054   001C60  EF34  F00E         	goto	i2u693_40
  7055   001C64                     i2u693_41:
  7056   001C64  EF39  F00E         	goto	i2l1198
  7057   001C68                     i2u693_40:
  7058   001C68                     
  7059                           ;MKAL_layer/Interrupt/mcal_interrupt_manager.c: 181:             && (PORTBbits.RB5 == GP
      +                          IO_HIGH) && (flag2 == 1)){;MKAL_layer/Interrupt/mcal_interrupt_manager.c: 182:          
      +                             flag2 = 0;
  7060   001C68  0E00               	movlw	0
  7061   001C6A  6E65               	movwf	_flag2^0,c
  7062   001C6C                     
  7063                           ;MKAL_layer/Interrupt/mcal_interrupt_manager.c: 183:             RB5_ISR(0);
  7064   001C6C  0E00               	movlw	0
  7065   001C6E  ECE1  F019         	call	_RB5_ISR
  7066   001C72                     i2l1198:
  7067                           
  7068                           ;MKAL_layer/Interrupt/mcal_interrupt_manager.c: 186:         if((1 == INTCONbits.RBIE) &
      +                          & (1 == INTCONbits.RBIF)
  7069   001C72  A6F2               	btfss	242,3,c	;volatile
  7070   001C74  EF3E  F00E         	goto	i2u694_41
  7071   001C78  EF40  F00E         	goto	i2u694_40
  7072   001C7C                     i2u694_41:
  7073   001C7C  EF5B  F00E         	goto	i2l1200
  7074   001C80                     i2u694_40:
  7075   001C80  A0F2               	btfss	242,0,c	;volatile
  7076   001C82  EF45  F00E         	goto	i2u695_41
  7077   001C86  EF47  F00E         	goto	i2u695_40
  7078   001C8A                     i2u695_41:
  7079   001C8A  EF5B  F00E         	goto	i2l1200
  7080   001C8E                     i2u695_40:
  7081   001C8E  BA81               	btfsc	129,5,c	;volatile
  7082   001C90  EF4C  F00E         	goto	i2u696_41
  7083   001C94  EF4E  F00E         	goto	i2u696_40
  7084   001C98                     i2u696_41:
  7085   001C98  EF5B  F00E         	goto	i2l1200
  7086   001C9C                     i2u696_40:
  7087   001C9C  5065               	movf	_flag2^0,w,c
  7088   001C9E  A4D8               	btfss	status,2,c
  7089   001CA0  EF54  F00E         	goto	i2u697_41
  7090   001CA4  EF56  F00E         	goto	i2u697_40
  7091   001CA8                     i2u697_41:
  7092   001CA8  EF5B  F00E         	goto	i2l1200
  7093   001CAC                     i2u697_40:
  7094   001CAC                     
  7095                           ;MKAL_layer/Interrupt/mcal_interrupt_manager.c: 187:             && (PORTBbits.RB5 == GP
      +                          IO_LOW) && (flag2 == 0)){;MKAL_layer/Interrupt/mcal_interrupt_manager.c: 188:           
      +                            flag2 =1;
  7096   001CAC  0E01               	movlw	1
  7097   001CAE  6E65               	movwf	_flag2^0,c
  7098   001CB0                     
  7099                           ;MKAL_layer/Interrupt/mcal_interrupt_manager.c: 189:             RB5_ISR(1);
  7100   001CB0  0E01               	movlw	1
  7101   001CB2  ECE1  F019         	call	_RB5_ISR
  7102   001CB6                     i2l1200:
  7103                           
  7104                           ;MKAL_layer/Interrupt/mcal_interrupt_manager.c: 192:          if((1 == INTCONbits.RBIE) 
      +                          && (1 == INTCONbits.RBIF)
  7105   001CB6  A6F2               	btfss	242,3,c	;volatile
  7106   001CB8  EF60  F00E         	goto	i2u698_41
  7107   001CBC  EF62  F00E         	goto	i2u698_40
  7108   001CC0                     i2u698_41:
  7109   001CC0  EF7D  F00E         	goto	i2l1202
  7110   001CC4                     i2u698_40:
  7111   001CC4  A0F2               	btfss	242,0,c	;volatile
  7112   001CC6  EF67  F00E         	goto	i2u699_41
  7113   001CCA  EF69  F00E         	goto	i2u699_40
  7114   001CCE                     i2u699_41:
  7115   001CCE  EF7D  F00E         	goto	i2l1202
  7116   001CD2                     i2u699_40:
  7117   001CD2  AC81               	btfss	129,6,c	;volatile
  7118   001CD4  EF6E  F00E         	goto	i2u700_41
  7119   001CD8  EF70  F00E         	goto	i2u700_40
  7120   001CDC                     i2u700_41:
  7121   001CDC  EF7D  F00E         	goto	i2l1202
  7122   001CE0                     i2u700_40:
  7123   001CE0  0464               	decf	_flag3^0,w,c
  7124   001CE2  A4D8               	btfss	status,2,c
  7125   001CE4  EF76  F00E         	goto	i2u701_41
  7126   001CE8  EF78  F00E         	goto	i2u701_40
  7127   001CEC                     i2u701_41:
  7128   001CEC  EF7D  F00E         	goto	i2l1202
  7129   001CF0                     i2u701_40:
  7130   001CF0                     
  7131                           ;MKAL_layer/Interrupt/mcal_interrupt_manager.c: 193:             && (PORTBbits.RB6 == GP
      +                          IO_HIGH) && (1 == flag3)){;MKAL_layer/Interrupt/mcal_interrupt_manager.c: 194:          
      +                             flag3 = 0;
  7132   001CF0  0E00               	movlw	0
  7133   001CF2  6E64               	movwf	_flag3^0,c
  7134   001CF4                     
  7135                           ;MKAL_layer/Interrupt/mcal_interrupt_manager.c: 195:             RB6_ISR(0);
  7136   001CF4  0E00               	movlw	0
  7137   001CF6  ECD4  F019         	call	_RB6_ISR
  7138   001CFA                     i2l1202:
  7139                           
  7140                           ;MKAL_layer/Interrupt/mcal_interrupt_manager.c: 198:         if((1 == INTCONbits.RBIE) &
      +                          & (1 == INTCONbits.RBIF)
  7141   001CFA  A6F2               	btfss	242,3,c	;volatile
  7142   001CFC  EF82  F00E         	goto	i2u702_41
  7143   001D00  EF84  F00E         	goto	i2u702_40
  7144   001D04                     i2u702_41:
  7145   001D04  EF9F  F00E         	goto	i2l1204
  7146   001D08                     i2u702_40:
  7147   001D08  A0F2               	btfss	242,0,c	;volatile
  7148   001D0A  EF89  F00E         	goto	i2u703_41
  7149   001D0E  EF8B  F00E         	goto	i2u703_40
  7150   001D12                     i2u703_41:
  7151   001D12  EF9F  F00E         	goto	i2l1204
  7152   001D16                     i2u703_40:
  7153   001D16  BC81               	btfsc	129,6,c	;volatile
  7154   001D18  EF90  F00E         	goto	i2u704_41
  7155   001D1C  EF92  F00E         	goto	i2u704_40
  7156   001D20                     i2u704_41:
  7157   001D20  EF9F  F00E         	goto	i2l1204
  7158   001D24                     i2u704_40:
  7159   001D24  5064               	movf	_flag3^0,w,c
  7160   001D26  A4D8               	btfss	status,2,c
  7161   001D28  EF98  F00E         	goto	i2u705_41
  7162   001D2C  EF9A  F00E         	goto	i2u705_40
  7163   001D30                     i2u705_41:
  7164   001D30  EF9F  F00E         	goto	i2l1204
  7165   001D34                     i2u705_40:
  7166   001D34                     
  7167                           ;MKAL_layer/Interrupt/mcal_interrupt_manager.c: 199:             && (PORTBbits.RB6 == GP
      +                          IO_LOW) && (0 == flag3)){;MKAL_layer/Interrupt/mcal_interrupt_manager.c: 200:           
      +                            flag3 = 1;
  7168   001D34  0E01               	movlw	1
  7169   001D36  6E64               	movwf	_flag3^0,c
  7170   001D38                     
  7171                           ;MKAL_layer/Interrupt/mcal_interrupt_manager.c: 201:             RB6_ISR(1);
  7172   001D38  0E01               	movlw	1
  7173   001D3A  ECD4  F019         	call	_RB6_ISR
  7174   001D3E                     i2l1204:
  7175                           
  7176                           ;MKAL_layer/Interrupt/mcal_interrupt_manager.c: 204:          if((1 == INTCONbits.RBIE) 
      +                          && (1 == INTCONbits.RBIF)
  7177   001D3E  A6F2               	btfss	242,3,c	;volatile
  7178   001D40  EFA4  F00E         	goto	i2u706_41
  7179   001D44  EFA6  F00E         	goto	i2u706_40
  7180   001D48                     i2u706_41:
  7181   001D48  EFC1  F00E         	goto	i2l1206
  7182   001D4C                     i2u706_40:
  7183   001D4C  A0F2               	btfss	242,0,c	;volatile
  7184   001D4E  EFAB  F00E         	goto	i2u707_41
  7185   001D52  EFAD  F00E         	goto	i2u707_40
  7186   001D56                     i2u707_41:
  7187   001D56  EFC1  F00E         	goto	i2l1206
  7188   001D5A                     i2u707_40:
  7189   001D5A  AE81               	btfss	129,7,c	;volatile
  7190   001D5C  EFB2  F00E         	goto	i2u708_41
  7191   001D60  EFB4  F00E         	goto	i2u708_40
  7192   001D64                     i2u708_41:
  7193   001D64  EFC1  F00E         	goto	i2l1206
  7194   001D68                     i2u708_40:
  7195   001D68  0463               	decf	_flag4^0,w,c
  7196   001D6A  A4D8               	btfss	status,2,c
  7197   001D6C  EFBA  F00E         	goto	i2u709_41
  7198   001D70  EFBC  F00E         	goto	i2u709_40
  7199   001D74                     i2u709_41:
  7200   001D74  EFC1  F00E         	goto	i2l1206
  7201   001D78                     i2u709_40:
  7202   001D78                     
  7203                           ;MKAL_layer/Interrupt/mcal_interrupt_manager.c: 205:             && (PORTBbits.RB7 == GP
      +                          IO_HIGH) && (1 == flag4)){;MKAL_layer/Interrupt/mcal_interrupt_manager.c: 206:          
      +                             flag4 = 0;
  7204   001D78  0E00               	movlw	0
  7205   001D7A  6E63               	movwf	_flag4^0,c
  7206   001D7C                     
  7207                           ;MKAL_layer/Interrupt/mcal_interrupt_manager.c: 207:             RB7_ISR(0);
  7208   001D7C  0E00               	movlw	0
  7209   001D7E  ECC7  F019         	call	_RB7_ISR
  7210   001D82                     i2l1206:
  7211                           
  7212                           ;MKAL_layer/Interrupt/mcal_interrupt_manager.c: 210:         if((1 == INTCONbits.RBIE) &
      +                          & (1 == INTCONbits.RBIF)
  7213   001D82  A6F2               	btfss	242,3,c	;volatile
  7214   001D84  EFC6  F00E         	goto	i2u710_41
  7215   001D88  EFC8  F00E         	goto	i2u710_40
  7216   001D8C                     i2u710_41:
  7217   001D8C  EFE3  F00E         	goto	i2l1208
  7218   001D90                     i2u710_40:
  7219   001D90  A0F2               	btfss	242,0,c	;volatile
  7220   001D92  EFCD  F00E         	goto	i2u711_41
  7221   001D96  EFCF  F00E         	goto	i2u711_40
  7222   001D9A                     i2u711_41:
  7223   001D9A  EFE3  F00E         	goto	i2l1208
  7224   001D9E                     i2u711_40:
  7225   001D9E  BE81               	btfsc	129,7,c	;volatile
  7226   001DA0  EFD4  F00E         	goto	i2u712_41
  7227   001DA4  EFD6  F00E         	goto	i2u712_40
  7228   001DA8                     i2u712_41:
  7229   001DA8  EFE3  F00E         	goto	i2l1208
  7230   001DAC                     i2u712_40:
  7231   001DAC  5063               	movf	_flag4^0,w,c
  7232   001DAE  A4D8               	btfss	status,2,c
  7233   001DB0  EFDC  F00E         	goto	i2u713_41
  7234   001DB4  EFDE  F00E         	goto	i2u713_40
  7235   001DB8                     i2u713_41:
  7236   001DB8  EFE3  F00E         	goto	i2l1208
  7237   001DBC                     i2u713_40:
  7238   001DBC                     
  7239                           ;MKAL_layer/Interrupt/mcal_interrupt_manager.c: 211:             && (PORTBbits.RB7 == GP
      +                          IO_LOW) && (0 == flag4)){;MKAL_layer/Interrupt/mcal_interrupt_manager.c: 212:           
      +                            flag4 = 1;
  7240   001DBC  0E01               	movlw	1
  7241   001DBE  6E63               	movwf	_flag4^0,c
  7242   001DC0                     
  7243                           ;MKAL_layer/Interrupt/mcal_interrupt_manager.c: 213:             RB7_ISR(1);
  7244   001DC0  0E01               	movlw	1
  7245   001DC2  ECC7  F019         	call	_RB7_ISR
  7246   001DC6                     i2l1208:
  7247                           
  7248                           ;MKAL_layer/Interrupt/mcal_interrupt_manager.c: 217:         if((1 == PIE1bits.ADIE) && 
      +                          (1 == PIR1bits.ADIF)){
  7249   001DC6  AC9D               	btfss	157,6,c	;volatile
  7250   001DC8  EFE8  F00E         	goto	i2u714_41
  7251   001DCC  EFEA  F00E         	goto	i2u714_40
  7252   001DD0                     i2u714_41:
  7253   001DD0  EFF3  F00E         	goto	i2l1210
  7254   001DD4                     i2u714_40:
  7255   001DD4  AC9E               	btfss	158,6,c	;volatile
  7256   001DD6  EFEF  F00E         	goto	i2u715_41
  7257   001DDA  EFF1  F00E         	goto	i2u715_40
  7258   001DDE                     i2u715_41:
  7259   001DDE  EFF3  F00E         	goto	i2l1210
  7260   001DE2                     i2u715_40:
  7261   001DE2                     
  7262                           ;MKAL_layer/Interrupt/mcal_interrupt_manager.c: 218:             ADC_handeler_funvtion()
      +                          ;
  7263   001DE2  EC2F  F01A         	call	_ADC_handeler_funvtion	;wreg free
  7264   001DE6                     i2l1210:
  7265                           
  7266                           ;MKAL_layer/Interrupt/mcal_interrupt_manager.c: 222:         if((1 == INTCONbits.TMR0IE)
      +                           && (1 == INTCONbits.TMR0IF)){
  7267   001DE6  AAF2               	btfss	242,5,c	;volatile
  7268   001DE8  EFF8  F00E         	goto	i2u716_41
  7269   001DEC  EFFA  F00E         	goto	i2u716_40
  7270   001DF0                     i2u716_41:
  7271   001DF0  EF03  F00F         	goto	i2l1212
  7272   001DF4                     i2u716_40:
  7273   001DF4  A4F2               	btfss	242,2,c	;volatile
  7274   001DF6  EFFF  F00E         	goto	i2u717_41
  7275   001DFA  EF01  F00F         	goto	i2u717_40
  7276   001DFE                     i2u717_41:
  7277   001DFE  EF03  F00F         	goto	i2l1212
  7278   001E02                     i2u717_40:
  7279   001E02                     
  7280                           ;MKAL_layer/Interrupt/mcal_interrupt_manager.c: 223:             TIMER0_ISR();
  7281   001E02  EC12  F01A         	call	_TIMER0_ISR	;wreg free
  7282   001E06                     i2l1212:
  7283                           
  7284                           ;MKAL_layer/Interrupt/mcal_interrupt_manager.c: 227:         if((1 == PIE1bits.TMR1IE) &
      +                          & (1 == PIR1bits.TMR1IF)){
  7285   001E06  A09D               	btfss	157,0,c	;volatile
  7286   001E08  EF08  F00F         	goto	i2u718_41
  7287   001E0C  EF0A  F00F         	goto	i2u718_40
  7288   001E10                     i2u718_41:
  7289   001E10  EF13  F00F         	goto	i2l1214
  7290   001E14                     i2u718_40:
  7291   001E14  A09E               	btfss	158,0,c	;volatile
  7292   001E16  EF0F  F00F         	goto	i2u719_41
  7293   001E1A  EF11  F00F         	goto	i2u719_40
  7294   001E1E                     i2u719_41:
  7295   001E1E  EF13  F00F         	goto	i2l1214
  7296   001E22                     i2u719_40:
  7297   001E22                     
  7298                           ;MKAL_layer/Interrupt/mcal_interrupt_manager.c: 228:             TIMER1_ISR();
  7299   001E22  EC0C  F01A         	call	_TIMER1_ISR	;wreg free
  7300   001E26                     i2l1214:
  7301                           
  7302                           ;MKAL_layer/Interrupt/mcal_interrupt_manager.c: 232:         if((1 == PIE1bits.TMR2IE) &
      +                          & (1 == PIR1bits.TMR2IF)){
  7303   001E26  A29D               	btfss	157,1,c	;volatile
  7304   001E28  EF18  F00F         	goto	i2u720_41
  7305   001E2C  EF1A  F00F         	goto	i2u720_40
  7306   001E30                     i2u720_41:
  7307   001E30  EF23  F00F         	goto	i2l1216
  7308   001E34                     i2u720_40:
  7309   001E34  A29E               	btfss	158,1,c	;volatile
  7310   001E36  EF1F  F00F         	goto	i2u721_41
  7311   001E3A  EF21  F00F         	goto	i2u721_40
  7312   001E3E                     i2u721_41:
  7313   001E3E  EF23  F00F         	goto	i2l1216
  7314   001E42                     i2u721_40:
  7315   001E42                     
  7316                           ;MKAL_layer/Interrupt/mcal_interrupt_manager.c: 233:             TIMER2_ISR();
  7317   001E42  EC18  F01A         	call	_TIMER2_ISR	;wreg free
  7318   001E46                     i2l1216:
  7319                           
  7320                           ;MKAL_layer/Interrupt/mcal_interrupt_manager.c: 237:         if((1 == PIE2bits.TMR3IE) &
      +                          & (1 == PIR2bits.TMR3IF)){
  7321   001E46  A2A0               	btfss	160,1,c	;volatile
  7322   001E48  EF28  F00F         	goto	i2u722_41
  7323   001E4C  EF2A  F00F         	goto	i2u722_40
  7324   001E50                     i2u722_41:
  7325   001E50  EF33  F00F         	goto	i2l1218
  7326   001E54                     i2u722_40:
  7327   001E54  A2A1               	btfss	161,1,c	;volatile
  7328   001E56  EF2F  F00F         	goto	i2u723_41
  7329   001E5A  EF31  F00F         	goto	i2u723_40
  7330   001E5E                     i2u723_41:
  7331   001E5E  EF33  F00F         	goto	i2l1218
  7332   001E62                     i2u723_40:
  7333   001E62                     
  7334                           ;MKAL_layer/Interrupt/mcal_interrupt_manager.c: 238:             TIMER3_ISR();
  7335   001E62  EC06  F01A         	call	_TIMER3_ISR	;wreg free
  7336   001E66                     i2l1218:
  7337                           
  7338                           ;MKAL_layer/Interrupt/mcal_interrupt_manager.c: 242:         if((1 == PIE1bits.CCP1IE) &
      +                          & (1 == PIR1bits.CCP1IF)){
  7339   001E66  A49D               	btfss	157,2,c	;volatile
  7340   001E68  EF38  F00F         	goto	i2u724_41
  7341   001E6C  EF3A  F00F         	goto	i2u724_40
  7342   001E70                     i2u724_41:
  7343   001E70  EF43  F00F         	goto	i2l1220
  7344   001E74                     i2u724_40:
  7345   001E74  A49E               	btfss	158,2,c	;volatile
  7346   001E76  EF3F  F00F         	goto	i2u725_41
  7347   001E7A  EF41  F00F         	goto	i2u725_40
  7348   001E7E                     i2u725_41:
  7349   001E7E  EF43  F00F         	goto	i2l1220
  7350   001E82                     i2u725_40:
  7351   001E82                     
  7352                           ;MKAL_layer/Interrupt/mcal_interrupt_manager.c: 243:             CCP1_ISR();
  7353   001E82  EC2D  F01A         	call	_CCP1_ISR	;wreg free
  7354   001E86                     i2l1220:
  7355                           
  7356                           ;MKAL_layer/Interrupt/mcal_interrupt_manager.c: 247:         if((1 == PIE2bits.CCP2IE) &
      +                          & (1 == PIR2bits.CCP2IF)){
  7357   001E86  A0A0               	btfss	160,0,c	;volatile
  7358   001E88  EF48  F00F         	goto	i2u726_41
  7359   001E8C  EF4A  F00F         	goto	i2u726_40
  7360   001E90                     i2u726_41:
  7361   001E90  EF53  F00F         	goto	i2l1222
  7362   001E94                     i2u726_40:
  7363   001E94  A0A1               	btfss	161,0,c	;volatile
  7364   001E96  EF4F  F00F         	goto	i2u727_41
  7365   001E9A  EF51  F00F         	goto	i2u727_40
  7366   001E9E                     i2u727_41:
  7367   001E9E  EF53  F00F         	goto	i2l1222
  7368   001EA2                     i2u727_40:
  7369   001EA2                     
  7370                           ;MKAL_layer/Interrupt/mcal_interrupt_manager.c: 248:             CCP2_ISR();
  7371   001EA2  EC2B  F01A         	call	_CCP2_ISR	;wreg free
  7372   001EA6                     i2l1222:
  7373                           
  7374                           ;MKAL_layer/Interrupt/mcal_interrupt_manager.c: 252:         if((1 == PIE1bits.TXIE) && 
      +                          (1 == PIR1bits.TXIF)){
  7375   001EA6  A89D               	btfss	157,4,c	;volatile
  7376   001EA8  EF58  F00F         	goto	i2u728_41
  7377   001EAC  EF5A  F00F         	goto	i2u728_40
  7378   001EB0                     i2u728_41:
  7379   001EB0  EF63  F00F         	goto	i2l1224
  7380   001EB4                     i2u728_40:
  7381   001EB4  A89E               	btfss	158,4,c	;volatile
  7382   001EB6  EF5F  F00F         	goto	i2u729_41
  7383   001EBA  EF61  F00F         	goto	i2u729_40
  7384   001EBE                     i2u729_41:
  7385   001EBE  EF63  F00F         	goto	i2l1224
  7386   001EC2                     i2u729_40:
  7387   001EC2                     
  7388                           ;MKAL_layer/Interrupt/mcal_interrupt_manager.c: 253:             USART_TX_ISR();
  7389   001EC2  EC1F  F01A         	call	_USART_TX_ISR	;wreg free
  7390   001EC6                     i2l1224:
  7391                           
  7392                           ;MKAL_layer/Interrupt/mcal_interrupt_manager.c: 257:         if((1 == PIE1bits.RCIE) && 
      +                          (1 == PIR1bits.RCIF)){
  7393   001EC6  AA9D               	btfss	157,5,c	;volatile
  7394   001EC8  EF68  F00F         	goto	i2u730_41
  7395   001ECC  EF6A  F00F         	goto	i2u730_40
  7396   001ED0                     i2u730_41:
  7397   001ED0  EF73  F00F         	goto	i2l1226
  7398   001ED4                     i2u730_40:
  7399   001ED4  AA9E               	btfss	158,5,c	;volatile
  7400   001ED6  EF6F  F00F         	goto	i2u731_41
  7401   001EDA  EF71  F00F         	goto	i2u731_40
  7402   001EDE                     i2u731_41:
  7403   001EDE  EF73  F00F         	goto	i2l1226
  7404   001EE2                     i2u731_40:
  7405   001EE2                     
  7406                           ;MKAL_layer/Interrupt/mcal_interrupt_manager.c: 258:             USART_RX_ISR();
  7407   001EE2  EC31  F01A         	call	_USART_RX_ISR	;wreg free
  7408   001EE6                     i2l1226:
  7409                           
  7410                           ;MKAL_layer/Interrupt/mcal_interrupt_manager.c: 262:         if((1 == PIE1bits.SSPIE) &&
      +                           (1 == PIR1bits.SSPIF)){
  7411   001EE6  A69D               	btfss	157,3,c	;volatile
  7412   001EE8  EF78  F00F         	goto	i2u732_41
  7413   001EEC  EF7A  F00F         	goto	i2u732_40
  7414   001EF0                     i2u732_41:
  7415   001EF0  EF83  F00F         	goto	i2l1228
  7416   001EF4                     i2u732_40:
  7417   001EF4  A69E               	btfss	158,3,c	;volatile
  7418   001EF6  EF7F  F00F         	goto	i2u733_41
  7419   001EFA  EF81  F00F         	goto	i2u733_40
  7420   001EFE                     i2u733_41:
  7421   001EFE  EF83  F00F         	goto	i2l1228
  7422   001F02                     i2u733_40:
  7423   001F02                     
  7424                           ;MKAL_layer/Interrupt/mcal_interrupt_manager.c: 263:             MSSP_I2C_ISR();
  7425   001F02  EC21  F01A         	call	_MSSP_I2C_ISR	;wreg free
  7426   001F06                     i2l1228:
  7427                           
  7428                           ;MKAL_layer/Interrupt/mcal_interrupt_manager.c: 267:         if((1 == PIE2bits.BCLIE) &&
      +                           (1 == IPR2bits.BCLIP)){
  7429   001F06  A6A0               	btfss	160,3,c	;volatile
  7430   001F08  EF88  F00F         	goto	i2u734_41
  7431   001F0C  EF8A  F00F         	goto	i2u734_40
  7432   001F10                     i2u734_41:
  7433   001F10  EF93  F00F         	goto	i2l1231
  7434   001F14                     i2u734_40:
  7435   001F14  A6A2               	btfss	162,3,c	;volatile
  7436   001F16  EF8F  F00F         	goto	i2u735_41
  7437   001F1A  EF91  F00F         	goto	i2u735_40
  7438   001F1E                     i2u735_41:
  7439   001F1E  EF93  F00F         	goto	i2l1231
  7440   001F22                     i2u735_40:
  7441   001F22                     
  7442                           ;MKAL_layer/Interrupt/mcal_interrupt_manager.c: 268:             MSSP_I2C_BC_ISR();
  7443   001F22  EC23  F01A         	call	_MSSP_I2C_BC_ISR	;wreg free
  7444   001F26                     i2l1231:
  7445   001F26  927E               	bcf	int$flags,1,c	;clear compiler interrupt flag (level 2)
  7446   001F28  0011               	retfie		f
  7447   001F2A                     __end_of_interrupt_manager:
  7448                           	callstack 0
  7449                           
  7450 ;; *************** function _USART_TX_ISR *****************
  7451 ;; Defined at:
  7452 ;;		line 258 in file "MKAL_layer/USART/hal_usart.c"
  7453 ;; Parameters:    Size  Location     Type
  7454 ;;		None
  7455 ;; Auto vars:     Size  Location     Type
  7456 ;;		None
  7457 ;; Return value:  Size  Location     Type
  7458 ;;                  1    wreg      void 
  7459 ;; Registers used:
  7460 ;;		None
  7461 ;; Tracked objects:
  7462 ;;		On entry : 0/0
  7463 ;;		On exit  : 0/0
  7464 ;;		Unchanged: 0/0
  7465 ;; Data sizes:     COMRAM   BANK0   BANK1   BANK2   BANK3   BANK4   BANK5   BANK6   BANK7   BANK8   BANK9  BANK10  BANK1
      +1  BANK12  BANK13  BANK14  BANK15
  7466 ;;      Params:         0       0       0       0       0       0       0       0       0       0       0       0       
      +0       0       0       0       0
  7467 ;;      Locals:         0       0       0       0       0       0       0       0       0       0       0       0       
      +0       0       0       0       0
  7468 ;;      Temps:          0       0       0       0       0       0       0       0       0       0       0       0       
      +0       0       0       0       0
  7469 ;;      Totals:         0       0       0       0       0       0       0       0       0       0       0       0       
      +0       0       0       0       0
  7470 ;;Total ram usage:        0 bytes
  7471 ;; Hardware stack levels used: 1
  7472 ;; This function calls:
  7473 ;;		Nothing
  7474 ;; This function is called by:
  7475 ;;		_interrupt_manager
  7476 ;; This function uses a non-reentrant model
  7477 ;;
  7478                           
  7479                           	psect	text38
  7480   00343E                     __ptext38:
  7481                           	callstack 0
  7482   00343E                     _USART_TX_ISR:
  7483                           	callstack 25
  7484   00343E                     
  7485                           ;MKAL_layer/USART/hal_usart.c: 259:     (PIE1bits.TXIE = 0);
  7486   00343E  989D               	bcf	157,4,c	;volatile
  7487   003440  0012               	return		;funcret
  7488   003442                     __end_of_USART_TX_ISR:
  7489                           	callstack 0
  7490                           
  7491 ;; *************** function _USART_RX_ISR *****************
  7492 ;; Defined at:
  7493 ;;		line 266 in file "MKAL_layer/USART/hal_usart.c"
  7494 ;; Parameters:    Size  Location     Type
  7495 ;;		None
  7496 ;; Auto vars:     Size  Location     Type
  7497 ;;		None
  7498 ;; Return value:  Size  Location     Type
  7499 ;;                  1    wreg      void 
  7500 ;; Registers used:
  7501 ;;		wreg, status,2, status,0
  7502 ;; Tracked objects:
  7503 ;;		On entry : 0/0
  7504 ;;		On exit  : 0/0
  7505 ;;		Unchanged: 0/0
  7506 ;; Data sizes:     COMRAM   BANK0   BANK1   BANK2   BANK3   BANK4   BANK5   BANK6   BANK7   BANK8   BANK9  BANK10  BANK1
      +1  BANK12  BANK13  BANK14  BANK15
  7507 ;;      Params:         0       0       0       0       0       0       0       0       0       0       0       0       
      +0       0       0       0       0
  7508 ;;      Locals:         0       0       0       0       0       0       0       0       0       0       0       0       
      +0       0       0       0       0
  7509 ;;      Temps:          0       0       0       0       0       0       0       0       0       0       0       0       
      +0       0       0       0       0
  7510 ;;      Totals:         0       0       0       0       0       0       0       0       0       0       0       0       
      +0       0       0       0       0
  7511 ;;Total ram usage:        0 bytes
  7512 ;; Hardware stack levels used: 1
  7513 ;; This function calls:
  7514 ;;		Nothing
  7515 ;; This function is called by:
  7516 ;;		_interrupt_manager
  7517 ;; This function uses a non-reentrant model
  7518 ;;
  7519                           
  7520                           	psect	text39
  7521   003462                     __ptext39:
  7522                           	callstack 0
  7523   003462                     _USART_RX_ISR:
  7524                           	callstack 25
  7525   003462  0012               	return		;funcret
  7526   003464                     __end_of_USART_RX_ISR:
  7527                           	callstack 0
  7528                           
  7529 ;; *************** function _TIMER3_ISR *****************
  7530 ;; Defined at:
  7531 ;;		line 129 in file "MKAL_layer/timer3/hal_timer3.c"
  7532 ;; Parameters:    Size  Location     Type
  7533 ;;		None
  7534 ;; Auto vars:     Size  Location     Type
  7535 ;;		None
  7536 ;; Return value:  Size  Location     Type
  7537 ;;                  1    wreg      void 
  7538 ;; Registers used:
  7539 ;;		wreg, status,2
  7540 ;; Tracked objects:
  7541 ;;		On entry : 0/0
  7542 ;;		On exit  : 0/0
  7543 ;;		Unchanged: 0/0
  7544 ;; Data sizes:     COMRAM   BANK0   BANK1   BANK2   BANK3   BANK4   BANK5   BANK6   BANK7   BANK8   BANK9  BANK10  BANK1
      +1  BANK12  BANK13  BANK14  BANK15
  7545 ;;      Params:         0       0       0       0       0       0       0       0       0       0       0       0       
      +0       0       0       0       0
  7546 ;;      Locals:         0       0       0       0       0       0       0       0       0       0       0       0       
      +0       0       0       0       0
  7547 ;;      Temps:          0       0       0       0       0       0       0       0       0       0       0       0       
      +0       0       0       0       0
  7548 ;;      Totals:         0       0       0       0       0       0       0       0       0       0       0       0       
      +0       0       0       0       0
  7549 ;;Total ram usage:        0 bytes
  7550 ;; Hardware stack levels used: 1
  7551 ;; This function calls:
  7552 ;;		Nothing
  7553 ;; This function is called by:
  7554 ;;		_interrupt_manager
  7555 ;; This function uses a non-reentrant model
  7556 ;;
  7557                           
  7558                           	psect	text40
  7559   00340C                     __ptext40:
  7560                           	callstack 0
  7561   00340C                     _TIMER3_ISR:
  7562                           	callstack 25
  7563   00340C                     
  7564                           ;MKAL_layer/timer3/hal_timer3.c: 131:     (PIR2bits.TMR3IF = 0);
  7565   00340C  92A1               	bcf	161,1,c	;volatile
  7566   00340E                     
  7567                           ;MKAL_layer/timer3/hal_timer3.c: 133:     TMR3H = (Timer3_preload >> 8);
  7568   00340E  5048               	movf	(_Timer3_preload+1)^0,w,c
  7569   003410  6EB3               	movwf	179,c	;volatile
  7570   003412                     
  7571                           ;MKAL_layer/timer3/hal_timer3.c: 134:     TMR3L = (uint8)(Timer3_preload);
  7572   003412  C047  FFB2         	movff	_Timer3_preload,4018	;volatile
  7573   003416  0012               	return		;funcret
  7574   003418                     __end_of_TIMER3_ISR:
  7575                           	callstack 0
  7576                           
  7577 ;; *************** function _TIMER2_ISR *****************
  7578 ;; Defined at:
  7579 ;;		line 95 in file "MKAL_layer/timer2/hal_timer2.c"
  7580 ;; Parameters:    Size  Location     Type
  7581 ;;		None
  7582 ;; Auto vars:     Size  Location     Type
  7583 ;;		None
  7584 ;; Return value:  Size  Location     Type
  7585 ;;                  1    wreg      void 
  7586 ;; Registers used:
  7587 ;;		None
  7588 ;; Tracked objects:
  7589 ;;		On entry : 0/0
  7590 ;;		On exit  : 0/0
  7591 ;;		Unchanged: 0/0
  7592 ;; Data sizes:     COMRAM   BANK0   BANK1   BANK2   BANK3   BANK4   BANK5   BANK6   BANK7   BANK8   BANK9  BANK10  BANK1
      +1  BANK12  BANK13  BANK14  BANK15
  7593 ;;      Params:         0       0       0       0       0       0       0       0       0       0       0       0       
      +0       0       0       0       0
  7594 ;;      Locals:         0       0       0       0       0       0       0       0       0       0       0       0       
      +0       0       0       0       0
  7595 ;;      Temps:          0       0       0       0       0       0       0       0       0       0       0       0       
      +0       0       0       0       0
  7596 ;;      Totals:         0       0       0       0       0       0       0       0       0       0       0       0       
      +0       0       0       0       0
  7597 ;;Total ram usage:        0 bytes
  7598 ;; Hardware stack levels used: 1
  7599 ;; This function calls:
  7600 ;;		Nothing
  7601 ;; This function is called by:
  7602 ;;		_interrupt_manager
  7603 ;; This function uses a non-reentrant model
  7604 ;;
  7605                           
  7606                           	psect	text41
  7607   003430                     __ptext41:
  7608                           	callstack 0
  7609   003430                     _TIMER2_ISR:
  7610                           	callstack 25
  7611   003430                     
  7612                           ;MKAL_layer/timer2/hal_timer2.c: 97:     (PIR1bits.TMR2IF = 0);
  7613   003430  929E               	bcf	158,1,c	;volatile
  7614                           
  7615                           ;MKAL_layer/timer2/hal_timer2.c: 99:     TMR2 = Timer2_preload;
  7616   003432  C055  FFCC         	movff	_Timer2_preload,4044	;volatile
  7617   003436  0012               	return		;funcret
  7618   003438                     __end_of_TIMER2_ISR:
  7619                           	callstack 0
  7620                           
  7621 ;; *************** function _TIMER1_ISR *****************
  7622 ;; Defined at:
  7623 ;;		line 153 in file "MKAL_layer/timer1/hal_timer1.c"
  7624 ;; Parameters:    Size  Location     Type
  7625 ;;		None
  7626 ;; Auto vars:     Size  Location     Type
  7627 ;;		None
  7628 ;; Return value:  Size  Location     Type
  7629 ;;                  1    wreg      void 
  7630 ;; Registers used:
  7631 ;;		wreg, status,2
  7632 ;; Tracked objects:
  7633 ;;		On entry : 0/0
  7634 ;;		On exit  : 0/0
  7635 ;;		Unchanged: 0/0
  7636 ;; Data sizes:     COMRAM   BANK0   BANK1   BANK2   BANK3   BANK4   BANK5   BANK6   BANK7   BANK8   BANK9  BANK10  BANK1
      +1  BANK12  BANK13  BANK14  BANK15
  7637 ;;      Params:         0       0       0       0       0       0       0       0       0       0       0       0       
      +0       0       0       0       0
  7638 ;;      Locals:         0       0       0       0       0       0       0       0       0       0       0       0       
      +0       0       0       0       0
  7639 ;;      Temps:          0       0       0       0       0       0       0       0       0       0       0       0       
      +0       0       0       0       0
  7640 ;;      Totals:         0       0       0       0       0       0       0       0       0       0       0       0       
      +0       0       0       0       0
  7641 ;;Total ram usage:        0 bytes
  7642 ;; Hardware stack levels used: 1
  7643 ;; This function calls:
  7644 ;;		Nothing
  7645 ;; This function is called by:
  7646 ;;		_interrupt_manager
  7647 ;; This function uses a non-reentrant model
  7648 ;;
  7649                           
  7650                           	psect	text42
  7651   003418                     __ptext42:
  7652                           	callstack 0
  7653   003418                     _TIMER1_ISR:
  7654                           	callstack 25
  7655   003418                     
  7656                           ;MKAL_layer/timer1/hal_timer1.c: 155:     (PIR1bits.TMR1IF = 0);
  7657   003418  909E               	bcf	158,0,c	;volatile
  7658   00341A                     
  7659                           ;MKAL_layer/timer1/hal_timer1.c: 157:     TMR1H = (Timer1_preload >> 8);
  7660   00341A  504A               	movf	(_Timer1_preload+1)^0,w,c
  7661   00341C  6ECF               	movwf	207,c	;volatile
  7662   00341E                     
  7663                           ;MKAL_layer/timer1/hal_timer1.c: 158:     TMR1L = (uint8)(Timer1_preload);
  7664   00341E  C049  FFCE         	movff	_Timer1_preload,4046	;volatile
  7665   003422  0012               	return		;funcret
  7666   003424                     __end_of_TIMER1_ISR:
  7667                           	callstack 0
  7668                           
  7669 ;; *************** function _TIMER0_ISR *****************
  7670 ;; Defined at:
  7671 ;;		line 157 in file "MKAL_layer/timer/hal_timer0.c"
  7672 ;; Parameters:    Size  Location     Type
  7673 ;;		None
  7674 ;; Auto vars:     Size  Location     Type
  7675 ;;		None
  7676 ;; Return value:  Size  Location     Type
  7677 ;;                  1    wreg      void 
  7678 ;; Registers used:
  7679 ;;		wreg, status,2
  7680 ;; Tracked objects:
  7681 ;;		On entry : 0/0
  7682 ;;		On exit  : 0/0
  7683 ;;		Unchanged: 0/0
  7684 ;; Data sizes:     COMRAM   BANK0   BANK1   BANK2   BANK3   BANK4   BANK5   BANK6   BANK7   BANK8   BANK9  BANK10  BANK1
      +1  BANK12  BANK13  BANK14  BANK15
  7685 ;;      Params:         0       0       0       0       0       0       0       0       0       0       0       0       
      +0       0       0       0       0
  7686 ;;      Locals:         0       0       0       0       0       0       0       0       0       0       0       0       
      +0       0       0       0       0
  7687 ;;      Temps:          0       0       0       0       0       0       0       0       0       0       0       0       
      +0       0       0       0       0
  7688 ;;      Totals:         0       0       0       0       0       0       0       0       0       0       0       0       
      +0       0       0       0       0
  7689 ;;Total ram usage:        0 bytes
  7690 ;; Hardware stack levels used: 1
  7691 ;; This function calls:
  7692 ;;		Nothing
  7693 ;; This function is called by:
  7694 ;;		_interrupt_manager
  7695 ;; This function uses a non-reentrant model
  7696 ;;
  7697                           
  7698                           	psect	text43
  7699   003424                     __ptext43:
  7700                           	callstack 0
  7701   003424                     _TIMER0_ISR:
  7702                           	callstack 25
  7703   003424                     
  7704                           ;MKAL_layer/timer/hal_timer0.c: 159:     (INTCONbits.TMR0IF = 0);
  7705   003424  94F2               	bcf	242,2,c	;volatile
  7706   003426                     
  7707                           ;MKAL_layer/timer/hal_timer0.c: 161:     TMR0H = (Timer0_preload >> 8);
  7708   003426  504C               	movf	(_Timer0_preload+1)^0,w,c
  7709   003428  6ED7               	movwf	215,c	;volatile
  7710   00342A                     
  7711                           ;MKAL_layer/timer/hal_timer0.c: 162:     TMR0L = (uint8)(Timer0_preload);
  7712   00342A  C04B  FFD6         	movff	_Timer0_preload,4054	;volatile
  7713   00342E  0012               	return		;funcret
  7714   003430                     __end_of_TIMER0_ISR:
  7715                           	callstack 0
  7716                           
  7717 ;; *************** function _RB7_ISR *****************
  7718 ;; Defined at:
  7719 ;;		line 585 in file "MKAL_layer/Interrupt/mcal_external_interrupt.c"
  7720 ;; Parameters:    Size  Location     Type
  7721 ;;  value           1    wreg     unsigned char 
  7722 ;; Auto vars:     Size  Location     Type
  7723 ;;  value           1    0[COMRAM] unsigned char 
  7724 ;; Return value:  Size  Location     Type
  7725 ;;                  1    wreg      void 
  7726 ;; Registers used:
  7727 ;;		wreg, status,2, status,0
  7728 ;; Tracked objects:
  7729 ;;		On entry : 0/0
  7730 ;;		On exit  : 0/0
  7731 ;;		Unchanged: 0/0
  7732 ;; Data sizes:     COMRAM   BANK0   BANK1   BANK2   BANK3   BANK4   BANK5   BANK6   BANK7   BANK8   BANK9  BANK10  BANK1
      +1  BANK12  BANK13  BANK14  BANK15
  7733 ;;      Params:         0       0       0       0       0       0       0       0       0       0       0       0       
      +0       0       0       0       0
  7734 ;;      Locals:         1       0       0       0       0       0       0       0       0       0       0       0       
      +0       0       0       0       0
  7735 ;;      Temps:          0       0       0       0       0       0       0       0       0       0       0       0       
      +0       0       0       0       0
  7736 ;;      Totals:         1       0       0       0       0       0       0       0       0       0       0       0       
      +0       0       0       0       0
  7737 ;;Total ram usage:        1 bytes
  7738 ;; Hardware stack levels used: 1
  7739 ;; This function calls:
  7740 ;;		Nothing
  7741 ;; This function is called by:
  7742 ;;		_interrupt_manager
  7743 ;; This function uses a non-reentrant model
  7744 ;;
  7745                           
  7746                           	psect	text44
  7747   00338E                     __ptext44:
  7748                           	callstack 0
  7749   00338E                     _RB7_ISR:
  7750                           	callstack 25
  7751                           
  7752                           ;incstack = 0
  7753                           ;RB7_ISR@value stored from wreg
  7754   00338E  6E01               	movwf	RB7_ISR@value^0,c
  7755   003390                     
  7756                           ;MKAL_layer/Interrupt/mcal_external_interrupt.c: 587:     (INTCONbits.RBIF = 0);
  7757   003390  90F2               	bcf	242,0,c	;volatile
  7758   003392                     
  7759                           ;MKAL_layer/Interrupt/mcal_external_interrupt.c: 591:     if(1 == value){
  7760   003392  0401               	decf	RB7_ISR@value^0,w,c
  7761   003394  A4D8               	btfss	status,2,c
  7762   003396  EFCF  F019         	goto	i2u605_41
  7763   00339A  EFD1  F019         	goto	i2u605_40
  7764   00339E                     i2u605_41:
  7765   00339E  EFD3  F019         	goto	i2l6813
  7766   0033A2                     i2u605_40:
  7767   0033A2  EFD3  F019         	goto	i2l1122
  7768   0033A6                     i2l6813:
  7769   0033A6                     i2l1122:
  7770   0033A6  0012               	return		;funcret
  7771   0033A8                     __end_of_RB7_ISR:
  7772                           	callstack 0
  7773                           
  7774 ;; *************** function _RB6_ISR *****************
  7775 ;; Defined at:
  7776 ;;		line 565 in file "MKAL_layer/Interrupt/mcal_external_interrupt.c"
  7777 ;; Parameters:    Size  Location     Type
  7778 ;;  value           1    wreg     unsigned char 
  7779 ;; Auto vars:     Size  Location     Type
  7780 ;;  value           1    0[COMRAM] unsigned char 
  7781 ;; Return value:  Size  Location     Type
  7782 ;;                  1    wreg      void 
  7783 ;; Registers used:
  7784 ;;		wreg, status,2, status,0
  7785 ;; Tracked objects:
  7786 ;;		On entry : 0/0
  7787 ;;		On exit  : 0/0
  7788 ;;		Unchanged: 0/0
  7789 ;; Data sizes:     COMRAM   BANK0   BANK1   BANK2   BANK3   BANK4   BANK5   BANK6   BANK7   BANK8   BANK9  BANK10  BANK1
      +1  BANK12  BANK13  BANK14  BANK15
  7790 ;;      Params:         0       0       0       0       0       0       0       0       0       0       0       0       
      +0       0       0       0       0
  7791 ;;      Locals:         1       0       0       0       0       0       0       0       0       0       0       0       
      +0       0       0       0       0
  7792 ;;      Temps:          0       0       0       0       0       0       0       0       0       0       0       0       
      +0       0       0       0       0
  7793 ;;      Totals:         1       0       0       0       0       0       0       0       0       0       0       0       
      +0       0       0       0       0
  7794 ;;Total ram usage:        1 bytes
  7795 ;; Hardware stack levels used: 1
  7796 ;; This function calls:
  7797 ;;		Nothing
  7798 ;; This function is called by:
  7799 ;;		_interrupt_manager
  7800 ;; This function uses a non-reentrant model
  7801 ;;
  7802                           
  7803                           	psect	text45
  7804   0033A8                     __ptext45:
  7805                           	callstack 0
  7806   0033A8                     _RB6_ISR:
  7807                           	callstack 25
  7808                           
  7809                           ;incstack = 0
  7810                           ;RB6_ISR@value stored from wreg
  7811   0033A8  6E01               	movwf	RB6_ISR@value^0,c
  7812   0033AA                     
  7813                           ;MKAL_layer/Interrupt/mcal_external_interrupt.c: 567:     (INTCONbits.RBIF = 0);
  7814   0033AA  90F2               	bcf	242,0,c	;volatile
  7815   0033AC                     
  7816                           ;MKAL_layer/Interrupt/mcal_external_interrupt.c: 571:     if(1 == value){
  7817   0033AC  0401               	decf	RB6_ISR@value^0,w,c
  7818   0033AE  A4D8               	btfss	status,2,c
  7819   0033B0  EFDC  F019         	goto	i2u604_41
  7820   0033B4  EFDE  F019         	goto	i2u604_40
  7821   0033B8                     i2u604_41:
  7822   0033B8  EFE0  F019         	goto	i2l6799
  7823   0033BC                     i2u604_40:
  7824   0033BC  EFE0  F019         	goto	i2l1111
  7825   0033C0                     i2l6799:
  7826   0033C0                     i2l1111:
  7827   0033C0  0012               	return		;funcret
  7828   0033C2                     __end_of_RB6_ISR:
  7829                           	callstack 0
  7830                           
  7831 ;; *************** function _RB5_ISR *****************
  7832 ;; Defined at:
  7833 ;;		line 545 in file "MKAL_layer/Interrupt/mcal_external_interrupt.c"
  7834 ;; Parameters:    Size  Location     Type
  7835 ;;  value           1    wreg     unsigned char 
  7836 ;; Auto vars:     Size  Location     Type
  7837 ;;  value           1    0[COMRAM] unsigned char 
  7838 ;; Return value:  Size  Location     Type
  7839 ;;                  1    wreg      void 
  7840 ;; Registers used:
  7841 ;;		wreg, status,2, status,0
  7842 ;; Tracked objects:
  7843 ;;		On entry : 0/0
  7844 ;;		On exit  : 0/0
  7845 ;;		Unchanged: 0/0
  7846 ;; Data sizes:     COMRAM   BANK0   BANK1   BANK2   BANK3   BANK4   BANK5   BANK6   BANK7   BANK8   BANK9  BANK10  BANK1
      +1  BANK12  BANK13  BANK14  BANK15
  7847 ;;      Params:         0       0       0       0       0       0       0       0       0       0       0       0       
      +0       0       0       0       0
  7848 ;;      Locals:         1       0       0       0       0       0       0       0       0       0       0       0       
      +0       0       0       0       0
  7849 ;;      Temps:          0       0       0       0       0       0       0       0       0       0       0       0       
      +0       0       0       0       0
  7850 ;;      Totals:         1       0       0       0       0       0       0       0       0       0       0       0       
      +0       0       0       0       0
  7851 ;;Total ram usage:        1 bytes
  7852 ;; Hardware stack levels used: 1
  7853 ;; This function calls:
  7854 ;;		Nothing
  7855 ;; This function is called by:
  7856 ;;		_interrupt_manager
  7857 ;; This function uses a non-reentrant model
  7858 ;;
  7859                           
  7860                           	psect	text46
  7861   0033C2                     __ptext46:
  7862                           	callstack 0
  7863   0033C2                     _RB5_ISR:
  7864                           	callstack 25
  7865                           
  7866                           ;incstack = 0
  7867                           ;RB5_ISR@value stored from wreg
  7868   0033C2  6E01               	movwf	RB5_ISR@value^0,c
  7869   0033C4                     
  7870                           ;MKAL_layer/Interrupt/mcal_external_interrupt.c: 547:     (INTCONbits.RBIF = 0);
  7871   0033C4  90F2               	bcf	242,0,c	;volatile
  7872   0033C6                     
  7873                           ;MKAL_layer/Interrupt/mcal_external_interrupt.c: 551:     if(1 == value){
  7874   0033C6  0401               	decf	RB5_ISR@value^0,w,c
  7875   0033C8  A4D8               	btfss	status,2,c
  7876   0033CA  EFE9  F019         	goto	i2u603_41
  7877   0033CE  EFEB  F019         	goto	i2u603_40
  7878   0033D2                     i2u603_41:
  7879   0033D2  EFED  F019         	goto	i2l6785
  7880   0033D6                     i2u603_40:
  7881   0033D6  EFED  F019         	goto	i2l1100
  7882   0033DA                     i2l6785:
  7883   0033DA                     i2l1100:
  7884   0033DA  0012               	return		;funcret
  7885   0033DC                     __end_of_RB5_ISR:
  7886                           	callstack 0
  7887                           
  7888 ;; *************** function _RB4_ISR *****************
  7889 ;; Defined at:
  7890 ;;		line 525 in file "MKAL_layer/Interrupt/mcal_external_interrupt.c"
  7891 ;; Parameters:    Size  Location     Type
  7892 ;;  value           1    wreg     unsigned char 
  7893 ;; Auto vars:     Size  Location     Type
  7894 ;;  value           1    0[COMRAM] unsigned char 
  7895 ;; Return value:  Size  Location     Type
  7896 ;;                  1    wreg      void 
  7897 ;; Registers used:
  7898 ;;		wreg, status,2, status,0
  7899 ;; Tracked objects:
  7900 ;;		On entry : 0/0
  7901 ;;		On exit  : 0/0
  7902 ;;		Unchanged: 0/0
  7903 ;; Data sizes:     COMRAM   BANK0   BANK1   BANK2   BANK3   BANK4   BANK5   BANK6   BANK7   BANK8   BANK9  BANK10  BANK1
      +1  BANK12  BANK13  BANK14  BANK15
  7904 ;;      Params:         0       0       0       0       0       0       0       0       0       0       0       0       
      +0       0       0       0       0
  7905 ;;      Locals:         1       0       0       0       0       0       0       0       0       0       0       0       
      +0       0       0       0       0
  7906 ;;      Temps:          0       0       0       0       0       0       0       0       0       0       0       0       
      +0       0       0       0       0
  7907 ;;      Totals:         1       0       0       0       0       0       0       0       0       0       0       0       
      +0       0       0       0       0
  7908 ;;Total ram usage:        1 bytes
  7909 ;; Hardware stack levels used: 1
  7910 ;; This function calls:
  7911 ;;		Nothing
  7912 ;; This function is called by:
  7913 ;;		_interrupt_manager
  7914 ;; This function uses a non-reentrant model
  7915 ;;
  7916                           
  7917                           	psect	text47
  7918   0033DC                     __ptext47:
  7919                           	callstack 0
  7920   0033DC                     _RB4_ISR:
  7921                           	callstack 25
  7922                           
  7923                           ;incstack = 0
  7924                           ;RB4_ISR@value stored from wreg
  7925   0033DC  6E01               	movwf	RB4_ISR@value^0,c
  7926   0033DE                     
  7927                           ;MKAL_layer/Interrupt/mcal_external_interrupt.c: 527:     (INTCONbits.RBIF = 0);
  7928   0033DE  90F2               	bcf	242,0,c	;volatile
  7929   0033E0                     
  7930                           ;MKAL_layer/Interrupt/mcal_external_interrupt.c: 531:     if(1 == value){
  7931   0033E0  0401               	decf	RB4_ISR@value^0,w,c
  7932   0033E2  A4D8               	btfss	status,2,c
  7933   0033E4  EFF6  F019         	goto	i2u602_41
  7934   0033E8  EFF8  F019         	goto	i2u602_40
  7935   0033EC                     i2u602_41:
  7936   0033EC  EFFA  F019         	goto	i2l6771
  7937   0033F0                     i2u602_40:
  7938   0033F0  EFFA  F019         	goto	i2l1089
  7939   0033F4                     i2l6771:
  7940   0033F4                     i2l1089:
  7941   0033F4  0012               	return		;funcret
  7942   0033F6                     __end_of_RB4_ISR:
  7943                           	callstack 0
  7944                           
  7945 ;; *************** function _MSSP_I2C_ISR *****************
  7946 ;; Defined at:
  7947 ;;		line 276 in file "MKAL_layer/I2C/hal_i2c.c"
  7948 ;; Parameters:    Size  Location     Type
  7949 ;;		None
  7950 ;; Auto vars:     Size  Location     Type
  7951 ;;		None
  7952 ;; Return value:  Size  Location     Type
  7953 ;;                  1    wreg      void 
  7954 ;; Registers used:
  7955 ;;		None
  7956 ;; Tracked objects:
  7957 ;;		On entry : 0/0
  7958 ;;		On exit  : 0/0
  7959 ;;		Unchanged: 0/0
  7960 ;; Data sizes:     COMRAM   BANK0   BANK1   BANK2   BANK3   BANK4   BANK5   BANK6   BANK7   BANK8   BANK9  BANK10  BANK1
      +1  BANK12  BANK13  BANK14  BANK15
  7961 ;;      Params:         0       0       0       0       0       0       0       0       0       0       0       0       
      +0       0       0       0       0
  7962 ;;      Locals:         0       0       0       0       0       0       0       0       0       0       0       0       
      +0       0       0       0       0
  7963 ;;      Temps:          0       0       0       0       0       0       0       0       0       0       0       0       
      +0       0       0       0       0
  7964 ;;      Totals:         0       0       0       0       0       0       0       0       0       0       0       0       
      +0       0       0       0       0
  7965 ;;Total ram usage:        0 bytes
  7966 ;; Hardware stack levels used: 1
  7967 ;; This function calls:
  7968 ;;		Nothing
  7969 ;; This function is called by:
  7970 ;;		_interrupt_manager
  7971 ;; This function uses a non-reentrant model
  7972 ;;
  7973                           
  7974                           	psect	text48
  7975   003442                     __ptext48:
  7976                           	callstack 0
  7977   003442                     _MSSP_I2C_ISR:
  7978                           	callstack 25
  7979   003442                     
  7980                           ;MKAL_layer/I2C/hal_i2c.c: 278:     (PIR1bits.SSPIF = 0);
  7981   003442  969E               	bcf	158,3,c	;volatile
  7982   003444  0012               	return		;funcret
  7983   003446                     __end_of_MSSP_I2C_ISR:
  7984                           	callstack 0
  7985                           
  7986 ;; *************** function _MSSP_I2C_BC_ISR *****************
  7987 ;; Defined at:
  7988 ;;		line 285 in file "MKAL_layer/I2C/hal_i2c.c"
  7989 ;; Parameters:    Size  Location     Type
  7990 ;;		None
  7991 ;; Auto vars:     Size  Location     Type
  7992 ;;		None
  7993 ;; Return value:  Size  Location     Type
  7994 ;;                  1    wreg      void 
  7995 ;; Registers used:
  7996 ;;		None
  7997 ;; Tracked objects:
  7998 ;;		On entry : 0/0
  7999 ;;		On exit  : 0/0
  8000 ;;		Unchanged: 0/0
  8001 ;; Data sizes:     COMRAM   BANK0   BANK1   BANK2   BANK3   BANK4   BANK5   BANK6   BANK7   BANK8   BANK9  BANK10  BANK1
      +1  BANK12  BANK13  BANK14  BANK15
  8002 ;;      Params:         0       0       0       0       0       0       0       0       0       0       0       0       
      +0       0       0       0       0
  8003 ;;      Locals:         0       0       0       0       0       0       0       0       0       0       0       0       
      +0       0       0       0       0
  8004 ;;      Temps:          0       0       0       0       0       0       0       0       0       0       0       0       
      +0       0       0       0       0
  8005 ;;      Totals:         0       0       0       0       0       0       0       0       0       0       0       0       
      +0       0       0       0       0
  8006 ;;Total ram usage:        0 bytes
  8007 ;; Hardware stack levels used: 1
  8008 ;; This function calls:
  8009 ;;		Nothing
  8010 ;; This function is called by:
  8011 ;;		_interrupt_manager
  8012 ;; This function uses a non-reentrant model
  8013 ;;
  8014                           
  8015                           	psect	text49
  8016   003446                     __ptext49:
  8017                           	callstack 0
  8018   003446                     _MSSP_I2C_BC_ISR:
  8019                           	callstack 25
  8020   003446                     
  8021                           ;MKAL_layer/I2C/hal_i2c.c: 287:     (PIR2bits.BCLIF = 0);
  8022   003446  96A1               	bcf	161,3,c	;volatile
  8023   003448  0012               	return		;funcret
  8024   00344A                     __end_of_MSSP_I2C_BC_ISR:
  8025                           	callstack 0
  8026                           
  8027 ;; *************** function _INT2_ISR *****************
  8028 ;; Defined at:
  8029 ;;		line 511 in file "MKAL_layer/Interrupt/mcal_external_interrupt.c"
  8030 ;; Parameters:    Size  Location     Type
  8031 ;;		None
  8032 ;; Auto vars:     Size  Location     Type
  8033 ;;		None
  8034 ;; Return value:  Size  Location     Type
  8035 ;;                  1    wreg      void 
  8036 ;; Registers used:
  8037 ;;		None
  8038 ;; Tracked objects:
  8039 ;;		On entry : 0/0
  8040 ;;		On exit  : 0/0
  8041 ;;		Unchanged: 0/0
  8042 ;; Data sizes:     COMRAM   BANK0   BANK1   BANK2   BANK3   BANK4   BANK5   BANK6   BANK7   BANK8   BANK9  BANK10  BANK1
      +1  BANK12  BANK13  BANK14  BANK15
  8043 ;;      Params:         0       0       0       0       0       0       0       0       0       0       0       0       
      +0       0       0       0       0
  8044 ;;      Locals:         0       0       0       0       0       0       0       0       0       0       0       0       
      +0       0       0       0       0
  8045 ;;      Temps:          0       0       0       0       0       0       0       0       0       0       0       0       
      +0       0       0       0       0
  8046 ;;      Totals:         0       0       0       0       0       0       0       0       0       0       0       0       
      +0       0       0       0       0
  8047 ;;Total ram usage:        0 bytes
  8048 ;; Hardware stack levels used: 1
  8049 ;; This function calls:
  8050 ;;		Nothing
  8051 ;; This function is called by:
  8052 ;;		_interrupt_manager
  8053 ;; This function uses a non-reentrant model
  8054 ;;
  8055                           
  8056                           	psect	text50
  8057   00344A                     __ptext50:
  8058                           	callstack 0
  8059   00344A                     _INT2_ISR:
  8060                           	callstack 25
  8061   00344A                     
  8062                           ;MKAL_layer/Interrupt/mcal_external_interrupt.c: 513:     (INTCON3bits.INT2IF = 0);
  8063   00344A  92F0               	bcf	240,1,c	;volatile
  8064   00344C  0012               	return		;funcret
  8065   00344E                     __end_of_INT2_ISR:
  8066                           	callstack 0
  8067                           
  8068 ;; *************** function _INT1_ISR *****************
  8069 ;; Defined at:
  8070 ;;		line 498 in file "MKAL_layer/Interrupt/mcal_external_interrupt.c"
  8071 ;; Parameters:    Size  Location     Type
  8072 ;;		None
  8073 ;; Auto vars:     Size  Location     Type
  8074 ;;		None
  8075 ;; Return value:  Size  Location     Type
  8076 ;;                  1    wreg      void 
  8077 ;; Registers used:
  8078 ;;		None
  8079 ;; Tracked objects:
  8080 ;;		On entry : 0/0
  8081 ;;		On exit  : 0/0
  8082 ;;		Unchanged: 0/0
  8083 ;; Data sizes:     COMRAM   BANK0   BANK1   BANK2   BANK3   BANK4   BANK5   BANK6   BANK7   BANK8   BANK9  BANK10  BANK1
      +1  BANK12  BANK13  BANK14  BANK15
  8084 ;;      Params:         0       0       0       0       0       0       0       0       0       0       0       0       
      +0       0       0       0       0
  8085 ;;      Locals:         0       0       0       0       0       0       0       0       0       0       0       0       
      +0       0       0       0       0
  8086 ;;      Temps:          0       0       0       0       0       0       0       0       0       0       0       0       
      +0       0       0       0       0
  8087 ;;      Totals:         0       0       0       0       0       0       0       0       0       0       0       0       
      +0       0       0       0       0
  8088 ;;Total ram usage:        0 bytes
  8089 ;; Hardware stack levels used: 1
  8090 ;; This function calls:
  8091 ;;		Nothing
  8092 ;; This function is called by:
  8093 ;;		_interrupt_manager
  8094 ;; This function uses a non-reentrant model
  8095 ;;
  8096                           
  8097                           	psect	text51
  8098   00344E                     __ptext51:
  8099                           	callstack 0
  8100   00344E                     _INT1_ISR:
  8101                           	callstack 25
  8102   00344E                     
  8103                           ;MKAL_layer/Interrupt/mcal_external_interrupt.c: 500:     (INTCON3bits.INT1IF = 0);
  8104   00344E  90F0               	bcf	240,0,c	;volatile
  8105   003450  0012               	return		;funcret
  8106   003452                     __end_of_INT1_ISR:
  8107                           	callstack 0
  8108                           
  8109 ;; *************** function _INT0_ISR *****************
  8110 ;; Defined at:
  8111 ;;		line 485 in file "MKAL_layer/Interrupt/mcal_external_interrupt.c"
  8112 ;; Parameters:    Size  Location     Type
  8113 ;;		None
  8114 ;; Auto vars:     Size  Location     Type
  8115 ;;		None
  8116 ;; Return value:  Size  Location     Type
  8117 ;;                  1    wreg      void 
  8118 ;; Registers used:
  8119 ;;		None
  8120 ;; Tracked objects:
  8121 ;;		On entry : 0/0
  8122 ;;		On exit  : 0/0
  8123 ;;		Unchanged: 0/0
  8124 ;; Data sizes:     COMRAM   BANK0   BANK1   BANK2   BANK3   BANK4   BANK5   BANK6   BANK7   BANK8   BANK9  BANK10  BANK1
      +1  BANK12  BANK13  BANK14  BANK15
  8125 ;;      Params:         0       0       0       0       0       0       0       0       0       0       0       0       
      +0       0       0       0       0
  8126 ;;      Locals:         0       0       0       0       0       0       0       0       0       0       0       0       
      +0       0       0       0       0
  8127 ;;      Temps:          0       0       0       0       0       0       0       0       0       0       0       0       
      +0       0       0       0       0
  8128 ;;      Totals:         0       0       0       0       0       0       0       0       0       0       0       0       
      +0       0       0       0       0
  8129 ;;Total ram usage:        0 bytes
  8130 ;; Hardware stack levels used: 1
  8131 ;; This function calls:
  8132 ;;		Nothing
  8133 ;; This function is called by:
  8134 ;;		_interrupt_manager
  8135 ;; This function uses a non-reentrant model
  8136 ;;
  8137                           
  8138                           	psect	text52
  8139   003452                     __ptext52:
  8140                           	callstack 0
  8141   003452                     _INT0_ISR:
  8142                           	callstack 25
  8143   003452                     
  8144                           ;MKAL_layer/Interrupt/mcal_external_interrupt.c: 487:     (INTCONbits.INT0IF = 0);
  8145   003452  92F2               	bcf	242,1,c	;volatile
  8146   003454  0012               	return		;funcret
  8147   003456                     __end_of_INT0_ISR:
  8148                           	callstack 0
  8149                           
  8150 ;; *************** function _CCP2_ISR *****************
  8151 ;; Defined at:
  8152 ;;		line 218 in file "MKAL_layer/CCP2/hal_ccp2.c"
  8153 ;; Parameters:    Size  Location     Type
  8154 ;;		None
  8155 ;; Auto vars:     Size  Location     Type
  8156 ;;		None
  8157 ;; Return value:  Size  Location     Type
  8158 ;;                  1    wreg      void 
  8159 ;; Registers used:
  8160 ;;		None
  8161 ;; Tracked objects:
  8162 ;;		On entry : 0/0
  8163 ;;		On exit  : 0/0
  8164 ;;		Unchanged: 0/0
  8165 ;; Data sizes:     COMRAM   BANK0   BANK1   BANK2   BANK3   BANK4   BANK5   BANK6   BANK7   BANK8   BANK9  BANK10  BANK1
      +1  BANK12  BANK13  BANK14  BANK15
  8166 ;;      Params:         0       0       0       0       0       0       0       0       0       0       0       0       
      +0       0       0       0       0
  8167 ;;      Locals:         0       0       0       0       0       0       0       0       0       0       0       0       
      +0       0       0       0       0
  8168 ;;      Temps:          0       0       0       0       0       0       0       0       0       0       0       0       
      +0       0       0       0       0
  8169 ;;      Totals:         0       0       0       0       0       0       0       0       0       0       0       0       
      +0       0       0       0       0
  8170 ;;Total ram usage:        0 bytes
  8171 ;; Hardware stack levels used: 1
  8172 ;; This function calls:
  8173 ;;		Nothing
  8174 ;; This function is called by:
  8175 ;;		_interrupt_manager
  8176 ;; This function uses a non-reentrant model
  8177 ;;
  8178                           
  8179                           	psect	text53
  8180   003456                     __ptext53:
  8181                           	callstack 0
  8182   003456                     _CCP2_ISR:
  8183                           	callstack 25
  8184   003456                     
  8185                           ;MKAL_layer/CCP2/hal_ccp2.c: 219:     (PIR2bits.CCP2IF = 0);
  8186   003456  90A1               	bcf	161,0,c	;volatile
  8187   003458  0012               	return		;funcret
  8188   00345A                     __end_of_CCP2_ISR:
  8189                           	callstack 0
  8190                           
  8191 ;; *************** function _CCP1_ISR *****************
  8192 ;; Defined at:
  8193 ;;		line 218 in file "MKAL_layer/CCP1/hal_ccp1.c"
  8194 ;; Parameters:    Size  Location     Type
  8195 ;;		None
  8196 ;; Auto vars:     Size  Location     Type
  8197 ;;		None
  8198 ;; Return value:  Size  Location     Type
  8199 ;;                  1    wreg      void 
  8200 ;; Registers used:
  8201 ;;		None
  8202 ;; Tracked objects:
  8203 ;;		On entry : 0/0
  8204 ;;		On exit  : 0/0
  8205 ;;		Unchanged: 0/0
  8206 ;; Data sizes:     COMRAM   BANK0   BANK1   BANK2   BANK3   BANK4   BANK5   BANK6   BANK7   BANK8   BANK9  BANK10  BANK1
      +1  BANK12  BANK13  BANK14  BANK15
  8207 ;;      Params:         0       0       0       0       0       0       0       0       0       0       0       0       
      +0       0       0       0       0
  8208 ;;      Locals:         0       0       0       0       0       0       0       0       0       0       0       0       
      +0       0       0       0       0
  8209 ;;      Temps:          0       0       0       0       0       0       0       0       0       0       0       0       
      +0       0       0       0       0
  8210 ;;      Totals:         0       0       0       0       0       0       0       0       0       0       0       0       
      +0       0       0       0       0
  8211 ;;Total ram usage:        0 bytes
  8212 ;; Hardware stack levels used: 1
  8213 ;; This function calls:
  8214 ;;		Nothing
  8215 ;; This function is called by:
  8216 ;;		_interrupt_manager
  8217 ;; This function uses a non-reentrant model
  8218 ;;
  8219                           
  8220                           	psect	text54
  8221   00345A                     __ptext54:
  8222                           	callstack 0
  8223   00345A                     _CCP1_ISR:
  8224                           	callstack 25
  8225   00345A                     
  8226                           ;MKAL_layer/CCP1/hal_ccp1.c: 219:     (PIR1bits.CCP1IF = 0);
  8227   00345A  949E               	bcf	158,2,c	;volatile
  8228   00345C  0012               	return		;funcret
  8229   00345E                     __end_of_CCP1_ISR:
  8230                           	callstack 0
  8231                           
  8232 ;; *************** function _ADC_handeler_funvtion *****************
  8233 ;; Defined at:
  8234 ;;		line 222 in file "MKAL_layer/ADC/hal_adc.c"
  8235 ;; Parameters:    Size  Location     Type
  8236 ;;		None
  8237 ;; Auto vars:     Size  Location     Type
  8238 ;;		None
  8239 ;; Return value:  Size  Location     Type
  8240 ;;                  1    wreg      void 
  8241 ;; Registers used:
  8242 ;;		None
  8243 ;; Tracked objects:
  8244 ;;		On entry : 0/0
  8245 ;;		On exit  : 0/0
  8246 ;;		Unchanged: 0/0
  8247 ;; Data sizes:     COMRAM   BANK0   BANK1   BANK2   BANK3   BANK4   BANK5   BANK6   BANK7   BANK8   BANK9  BANK10  BANK1
      +1  BANK12  BANK13  BANK14  BANK15
  8248 ;;      Params:         0       0       0       0       0       0       0       0       0       0       0       0       
      +0       0       0       0       0
  8249 ;;      Locals:         0       0       0       0       0       0       0       0       0       0       0       0       
      +0       0       0       0       0
  8250 ;;      Temps:          0       0       0       0       0       0       0       0       0       0       0       0       
      +0       0       0       0       0
  8251 ;;      Totals:         0       0       0       0       0       0       0       0       0       0       0       0       
      +0       0       0       0       0
  8252 ;;Total ram usage:        0 bytes
  8253 ;; Hardware stack levels used: 1
  8254 ;; This function calls:
  8255 ;;		Nothing
  8256 ;; This function is called by:
  8257 ;;		_interrupt_manager
  8258 ;; This function uses a non-reentrant model
  8259 ;;
  8260                           
  8261                           	psect	text55
  8262   00345E                     __ptext55:
  8263                           	callstack 0
  8264   00345E                     _ADC_handeler_funvtion:
  8265                           	callstack 25
  8266   00345E                     
  8267                           ;MKAL_layer/ADC/hal_adc.c: 224:     (PIR1bits.ADIF = 0);
  8268   00345E  9C9E               	bcf	158,6,c	;volatile
  8269   003460  0012               	return		;funcret
  8270   003462                     __end_of_ADC_handeler_funvtion:
  8271                           	callstack 0
  8272                           
  8273                           	psect	rparam
  8274   000000                     
  8275                           	psect	temp
  8276   00007E                     btemp:
  8277                           	callstack 0
  8278   00007E                     	ds	1
  8279   000000                     int$flags	set	btemp
  8280   000000                     wtemp8	set	btemp+1
  8281   000000                     ttemp5	set	btemp+1
  8282   000000                     ttemp6	set	btemp+4
  8283   000000                     ttemp7	set	btemp+8
  8284                           
  8285                           	psect	config
  8286                           
  8287                           ; Padding undefined space
  8288   300000                     	org	3145728
  8289   300000  FF                 	db	255
  8290                           
  8291                           ;Config register CONFIG1H @ 0x300001
  8292                           ;	Oscillator Selection bits
  8293                           ;	OSC = HS, HS oscillator
  8294                           ;	Fail-Safe Clock Monitor Enable bit
  8295                           ;	FCMEN = OFF, Fail-Safe Clock Monitor disabled
  8296                           ;	Internal/External Oscillator Switchover bit
  8297                           ;	IESO = OFF, Oscillator Switchover mode disabled
  8298   300001                     	org	3145729
  8299   300001  02                 	db	2
  8300                           
  8301                           ;Config register CONFIG2L @ 0x300002
  8302                           ;	Power-up Timer Enable bit
  8303                           ;	PWRT = OFF, PWRT disabled
  8304                           ;	Brown-out Reset Enable bits
  8305                           ;	BOREN = OFF, Brown-out Reset disabled in hardware and software
  8306                           ;	Brown Out Reset Voltage bits
  8307                           ;	BORV = 1, 
  8308   300002                     	org	3145730
  8309   300002  09                 	db	9
  8310                           
  8311                           ;Config register CONFIG2H @ 0x300003
  8312                           ;	Watchdog Timer Enable bit
  8313                           ;	WDT = OFF, WDT disabled (control is placed on the SWDTEN bit)
  8314                           ;	Watchdog Timer Postscale Select bits
  8315                           ;	WDTPS = 32768, 1:32768
  8316   300003                     	org	3145731
  8317   300003  1E                 	db	30
  8318                           
  8319                           ; Padding undefined space
  8320   300004                     	org	3145732
  8321   300004  FF                 	db	255
  8322                           
  8323                           ;Config register CONFIG3H @ 0x300005
  8324                           ;	CCP2 MUX bit
  8325                           ;	CCP2MX = PORTC, CCP2 input/output is multiplexed with RC1
  8326                           ;	PORTB A/D Enable bit
  8327                           ;	PBADEN = OFF, PORTB<4:0> pins are configured as digital I/O on Reset
  8328                           ;	Low-Power Timer1 Oscillator Enable bit
  8329                           ;	LPT1OSC = OFF, Timer1 configured for higher power operation
  8330                           ;	MCLR Pin Enable bit
  8331                           ;	MCLRE = ON, MCLR pin enabled; RE3 input pin disabled
  8332   300005                     	org	3145733
  8333   300005  81                 	db	129
  8334                           
  8335                           ;Config register CONFIG4L @ 0x300006
  8336                           ;	Stack Full/Underflow Reset Enable bit
  8337                           ;	STVREN = ON, Stack full/underflow will cause Reset
  8338                           ;	Single-Supply ICSP Enable bit
  8339                           ;	LVP = OFF, Single-Supply ICSP disabled
  8340                           ;	Extended Instruction Set Enable bit
  8341                           ;	XINST = OFF, Instruction set extension and Indexed Addressing mode disabled (Legacy mo
      +                          de)
  8342                           ;	Background Debugger Enable bit
  8343                           ;	DEBUG = 0x1, unprogrammed default
  8344   300006                     	org	3145734
  8345   300006  81                 	db	129
  8346                           
  8347                           ; Padding undefined space
  8348   300007                     	org	3145735
  8349   300007  FF                 	db	255
  8350                           
  8351                           ;Config register CONFIG5L @ 0x300008
  8352                           ;	Code Protection bit
  8353                           ;	CP0 = OFF, Block 0 (000800-003FFFh) not code-protected
  8354                           ;	Code Protection bit
  8355                           ;	CP1 = OFF, Block 1 (004000-007FFFh) not code-protected
  8356                           ;	Code Protection bit
  8357                           ;	CP2 = OFF, Block 2 (008000-00BFFFh) not code-protected
  8358                           ;	Code Protection bit
  8359                           ;	CP3 = OFF, Block 3 (00C000-00FFFFh) not code-protected
  8360   300008                     	org	3145736
  8361   300008  0F                 	db	15
  8362                           
  8363                           ;Config register CONFIG5H @ 0x300009
  8364                           ;	Boot Block Code Protection bit
  8365                           ;	CPB = OFF, Boot block (000000-0007FFh) not code-protected
  8366                           ;	Data EEPROM Code Protection bit
  8367                           ;	CPD = OFF, Data EEPROM not code-protected
  8368   300009                     	org	3145737
  8369   300009  C0                 	db	192
  8370                           
  8371                           ;Config register CONFIG6L @ 0x30000A
  8372                           ;	Write Protection bit
  8373                           ;	WRT0 = OFF, Block 0 (000800-003FFFh) not write-protected
  8374                           ;	Write Protection bit
  8375                           ;	WRT1 = OFF, Block 1 (004000-007FFFh) not write-protected
  8376                           ;	Write Protection bit
  8377                           ;	WRT2 = OFF, Block 2 (008000-00BFFFh) not write-protected
  8378                           ;	Write Protection bit
  8379                           ;	WRT3 = OFF, Block 3 (00C000-00FFFFh) not write-protected
  8380   30000A                     	org	3145738
  8381   30000A  0F                 	db	15
  8382                           
  8383                           ;Config register CONFIG6H @ 0x30000B
  8384                           ;	Configuration Register Write Protection bit
  8385                           ;	WRTC = OFF, Configuration registers (300000-3000FFh) not write-protected
  8386                           ;	Boot Block Write Protection bit
  8387                           ;	WRTB = OFF, Boot Block (000000-0007FFh) not write-protected
  8388                           ;	Data EEPROM Write Protection bit
  8389                           ;	WRTD = OFF, Data EEPROM not write-protected
  8390   30000B                     	org	3145739
  8391   30000B  E0                 	db	224
  8392                           
  8393                           ;Config register CONFIG7L @ 0x30000C
  8394                           ;	Table Read Protection bit
  8395                           ;	EBTR0 = OFF, Block 0 (000800-003FFFh) not protected from table reads executed in other
      +                           blocks
  8396                           ;	Table Read Protection bit
  8397                           ;	EBTR1 = OFF, Block 1 (004000-007FFFh) not protected from table reads executed in other
      +                           blocks
  8398                           ;	Table Read Protection bit
  8399                           ;	EBTR2 = OFF, Block 2 (008000-00BFFFh) not protected from table reads executed in other
      +                           blocks
  8400                           ;	Table Read Protection bit
  8401                           ;	EBTR3 = OFF, Block 3 (00C000-00FFFFh) not protected from table reads executed in other
      +                           blocks
  8402   30000C                     	org	3145740
  8403   30000C  0F                 	db	15
  8404                           
  8405                           ;Config register CONFIG7H @ 0x30000D
  8406                           ;	Boot Block Table Read Protection bit
  8407                           ;	EBTRB = OFF, Boot Block (000000-0007FFh) not protected from table reads executed in ot
      +                          her blocks
  8408   30000D                     	org	3145741
  8409   30000D  40                 	db	64
  8410                           tosu	equ	0xFFF
  8411                           tosh	equ	0xFFE
  8412                           tosl	equ	0xFFD
  8413                           stkptr	equ	0xFFC
  8414                           pclatu	equ	0xFFB
  8415                           pclath	equ	0xFFA
  8416                           pcl	equ	0xFF9
  8417                           tblptru	equ	0xFF8
  8418                           tblptrh	equ	0xFF7
  8419                           tblptrl	equ	0xFF6
  8420                           tablat	equ	0xFF5
  8421                           prodh	equ	0xFF4
  8422                           prodl	equ	0xFF3
  8423                           indf0	equ	0xFEF
  8424                           postinc0	equ	0xFEE
  8425                           postdec0	equ	0xFED
  8426                           preinc0	equ	0xFEC
  8427                           plusw0	equ	0xFEB
  8428                           fsr0h	equ	0xFEA
  8429                           fsr0l	equ	0xFE9
  8430                           wreg	equ	0xFE8
  8431                           indf1	equ	0xFE7
  8432                           postinc1	equ	0xFE6
  8433                           postdec1	equ	0xFE5
  8434                           preinc1	equ	0xFE4
  8435                           plusw1	equ	0xFE3
  8436                           fsr1h	equ	0xFE2
  8437                           fsr1l	equ	0xFE1
  8438                           bsr	equ	0xFE0
  8439                           indf2	equ	0xFDF
  8440                           postinc2	equ	0xFDE
  8441                           postdec2	equ	0xFDD
  8442                           preinc2	equ	0xFDC
  8443                           plusw2	equ	0xFDB
  8444                           fsr2h	equ	0xFDA
  8445                           fsr2l	equ	0xFD9
  8446                           status	equ	0xFD8

Data Sizes:
    Strings     3
    Constant    16
    Data        91
    BSS         91
    Persistent  1
    Stack       0

Auto Spaces:
    Space          Size  Autos    Used
    COMRAM          126     70     125
    BANK0           128      0     128
    BANK1           256      1       1
    BANK2           256      0       0
    BANK3           256      0       0
    BANK4           256      0       0
    BANK5           256      0       0
    BANK6           256      0       0
    BANK7           256      0       0
    BANK8           256      0       0
    BANK9           256      0       0
    BANK10          256      0       0
    BANK11          256      0       0
    BANK12          256      0       0
    BANK13          256      0       0
    BANK14          256      0       0
    BANK15          128      0       0

Pointer List with Targets:

    ADC_INTERRUPTHANDLER	PTR FTN()void  size(2) Largest target is 1
		 -> NULL(), 

    ADC_inti@ADC_conf$ADC_interruptHandler	PTR FTN()void  size(2) Largest target is 0

    ADC_ISconversion_result@ADC_conf$ADC_interruptHandler	PTR FTN()void  size(2) Largest target is 0

    baudrate_calculate@usart$USART_FRAMING_ERROR_INTERRUPT_HANDLER	PTR FTN()void  size(2) Largest target is 0

    baudrate_calculate@usart$USART_OVERRUN_ERROR_INTERRUPT_HANDLER	PTR FTN()void  size(2) Largest target is 0

    baudrate_calculate@usart$USART_RX_INTERRUPT_HANDLER	PTR FTN()void  size(2) Largest target is 0

    baudrate_calculate@usart$USART_TX_INTERRUPT_HANDLER	PTR FTN()void  size(2) Largest target is 0

    ccp1_$CCP1_handler	PTR FTN()void  size(2) Largest target is 1
		 -> NULL(), 

    ccp1_init@ccp1_$CCP1_handler	PTR FTN()void  size(2) Largest target is 1
		 -> NULL(), 

    CCP1_Interrupthandler	PTR FTN()void  size(2) Largest target is 1
		 -> NULL(), 

    ccp2_init@ccp2_$CCP2_handler	PTR FTN()void  size(2) Largest target is 0

    CCP2_Interrupthandler	PTR FTN()void  size(2) Largest target is 1
		 -> NULL(), 

    configure_voltage_ref@ADC_conf$ADC_interruptHandler	PTR FTN()void  size(2) Largest target is 0

    distance_ultrasonic@ultra_pins	PTR struct . size(1) Largest target is 2
		 -> ultra_pins(BANK0[2]), 

    f$.$buffer	PTR unsigned char  size(2) Largest target is 0

    f$.$source	PTR const unsigned char  size(2) Largest target is 0

    GPIO_pIN_DIRECTION_INTIALIZE@config_pin	PTR const struct . size(1) Largest target is 8
		 -> buzzer(COMRAM[1]), led_intialize@pin_config(COMRAM[1]), matrix_keypad(BANK0[8]), matrix_keypad$keymap_colums_pins(BANK0[4]), 
		 -> matrix_keypad$keymap_rows_pins(BANK0[4]), relay_intialize@pin_config(COMRAM[1]), servo1(COMRAM[1]), ultra_pins(BANK0[2]), 
		 -> ultra_pins$ECHO_pin(BANK0[1]), ultra_pins$trigger_pin(BANK0[1]), 

    GPIO_pIN_INTIALIZE@config_pin	PTR const struct . size(1) Largest target is 8
		 -> buzzer(COMRAM[1]), led_intialize@pin_config(COMRAM[1]), matrix_keypad(BANK0[8]), matrix_keypad$keymap_rows_pins(BANK0[4]), 
		 -> relay_intialize@pin_config(COMRAM[1]), servo1(COMRAM[1]), ultra_pins(BANK0[2]), ultra_pins$ECHO_pin(BANK0[1]), 
		 -> ultra_pins$trigger_pin(BANK0[1]), 

    GPIO_pIN_READ_LOGIC@config_pin	PTR const struct . size(1) Largest target is 8
		 -> matrix_keypad(BANK0[8]), matrix_keypad$keymap_colums_pins(BANK0[4]), ultra_pins(BANK0[2]), ultra_pins$ECHO_pin(BANK0[1]), 

    GPIO_pIN_READ_LOGIC@logic	PTR enum E2980 size(1) Largest target is 1
		 -> button_read_state@logic_button(COMRAM[1]), keypad_get_value@colum_logic(COMRAM[1]), measure_distance_@variable(COMRAM[1]), 

    GPIO_pIN_WRITE_LOGIC@config_pin	PTR const struct . size(1) Largest target is 8
		 -> buzzer(COMRAM[1]), led_intialize@pin_config(COMRAM[1]), led_turn_off@pin_config(COMRAM[1]), led_turn_on@pin_config(COMRAM[1]), 
		 -> matrix_keypad(BANK0[8]), matrix_keypad$keymap_rows_pins(BANK0[4]), relay_intialize@pin_config(COMRAM[1]), relay_turn_off@pin_config(COMRAM[1]), 
		 -> relay_turn_on@pin_config(COMRAM[1]), servo1(COMRAM[1]), ultra_pins(BANK0[2]), ultra_pins$ECHO_pin(BANK0[1]), 
		 -> ultra_pins$trigger_pin(BANK0[1]), 

    I2C_DefaultInterruptHandle	PTR FTN()void  size(2) Largest target is 1
		 -> NULL(), 

    I2C_Master_Mode_Clock_Configurations@i2c_obj	PTR const struct . size(1) Largest target is 15
		 -> mssp_i2c(COMRAM[15]), 

    I2C_Master_Mode_Clock_Configurations@i2c_obj$I2C_DefaultInterruptHandler	PTR FTN()void  size(2) Largest target is 1
		 -> NULL(), 

    I2C_Master_Mode_Clock_Configurations@i2c_obj$I2C_Report_Receive_Overflow	PTR FTN()void  size(2) Largest target is 1
		 -> NULL(), 

    I2C_Master_Mode_Clock_Configurations@i2c_obj$I2C_Report_Write_Collision	PTR FTN()void  size(2) Largest target is 1
		 -> NULL(), 

    I2C_Report_Receive_Overflow_InterruptHandle	PTR FTN()void  size(2) Largest target is 1
		 -> NULL(), 

    I2C_Report_Write_Collision_InterruptHandler	PTR FTN()void  size(2) Largest target is 1
		 -> NULL(), 

    I2C_Slave_Mode_Configurations@i2c_obj	PTR const struct . size(1) Largest target is 15
		 -> mssp_i2c(COMRAM[15]), 

    I2C_Slave_Mode_Configurations@i2c_obj$I2C_DefaultInterruptHandler	PTR FTN()void  size(2) Largest target is 1
		 -> NULL(), 

    I2C_Slave_Mode_Configurations@i2c_obj$I2C_Report_Receive_Overflow	PTR FTN()void  size(2) Largest target is 1
		 -> NULL(), 

    I2C_Slave_Mode_Configurations@i2c_obj$I2C_Report_Write_Collision	PTR FTN()void  size(2) Largest target is 1
		 -> NULL(), 

    Int0_interrupthandler	PTR FTN()void  size(2) Largest target is 1
		 -> NULL(), 

    Int1_interrupthandler	PTR FTN()void  size(2) Largest target is 1
		 -> NULL(), 

    Int2_interrupthandler	PTR FTN()void  size(2) Largest target is 1
		 -> NULL(), 

    interrupt_intx_clear@INTERRUPT_INTX$EXT_INTERRUPTHANDLE	PTR FTN()void  size(2) Largest target is 0

    interrupt_intx_disable@INTERRUPT_INTX$EXT_INTERRUPTHANDLE	PTR FTN()void  size(2) Largest target is 0

    interrupt_intx_edge_inti@INTERRUPT_INTX$EXT_INTERRUPTHANDLE	PTR FTN()void  size(2) Largest target is 0

    interrupt_intx_enable@INTERRUPT_INTX$EXT_INTERRUPTHANDLE	PTR FTN()void  size(2) Largest target is 0

    interrupt_intx_pin_inti@INTERRUPT_INTX$EXT_INTERRUPTHANDLE	PTR FTN()void  size(2) Largest target is 0

    interrupt_intx_sethandler@INTERRUPT_INTX$EXT_INTERRUPTHANDLE	PTR FTN()void  size(2) Largest target is 0

    Interrupt_Pbx_Inti@INTERRUPT_PBX$EXT_INTERRUPTHANDLE_high	PTR FTN()void  size(2) Largest target is 0

    Interrupt_Pbx_Inti@INTERRUPT_PBX$EXT_INTERRUPTHANDLE_low	PTR FTN()void  size(2) Largest target is 0

    keypad_get_value@matrix_keypad	PTR const struct . size(1) Largest target is 8
		 -> matrix_keypad(BANK0[8]), 

    keypad_get_value@value	PTR unsigned char  size(1) Largest target is 1
		 -> data_key_1(COMRAM[1]), 

    keypad_intialize@matrix_keypad	PTR const struct . size(1) Largest target is 8
		 -> matrix_keypad(BANK0[8]), 

    lat_regisrers	PTR volatile unsigned char [5] size(2) Largest target is 1
		 -> LATA(BITBIGSFRllllll[1]), LATB(BITBIGSFRlllllh[1]), LATC(BITBIGSFRlllllh[1]), LATD(BITBIGSFRlllllh[1]), 
		 -> LATE(BITBIGSFRlllllh[1]), 

    led_intialize@led	PTR const struct . size(1) Largest target is 1
		 -> led4(COMRAM[1]), led6(COMRAM[1]), 

    led_turn_off@led	PTR const struct . size(1) Largest target is 1
		 -> led4(COMRAM[1]), led6(COMRAM[1]), 

    led_turn_on@led	PTR const struct . size(1) Largest target is 1
		 -> led4(COMRAM[1]), led6(COMRAM[1]), 

    measure_distance_@ultra_pins	PTR struct . size(1) Largest target is 2
		 -> ultra_pins(BANK0[2]), 

    mssp_i2c$I2C_DefaultInterruptHandler	PTR FTN()void  size(2) Largest target is 1
		 -> NULL(), 

    mssp_i2c$I2C_Report_Receive_Overflow	PTR FTN()void  size(2) Largest target is 1
		 -> NULL(), 

    mssp_i2c$I2C_Report_Write_Collision	PTR FTN()void  size(2) Largest target is 1
		 -> NULL(), 

    MSSP_I2C_Init@i2c_obj	PTR const struct . size(1) Largest target is 15
		 -> mssp_i2c(COMRAM[15]), 

    MSSP_I2C_Init@i2c_obj$I2C_DefaultInterruptHandler	PTR FTN()void  size(2) Largest target is 1
		 -> NULL(), 

    MSSP_I2C_Init@i2c_obj$I2C_Report_Receive_Overflow	PTR FTN()void  size(2) Largest target is 1
		 -> NULL(), 

    MSSP_I2C_Init@i2c_obj$I2C_Report_Write_Collision	PTR FTN()void  size(2) Largest target is 1
		 -> NULL(), 

    MSSP_I2C_Interrupt_Configurations@i2c_obj	PTR const struct . size(1) Largest target is 15
		 -> mssp_i2c(COMRAM[15]), 

    MSSP_I2C_Interrupt_Configurations@i2c_obj$I2C_DefaultInterruptHandler	PTR FTN()void  size(2) Largest target is 1
		 -> NULL(), 

    MSSP_I2C_Interrupt_Configurations@i2c_obj$I2C_Report_Receive_Overflow	PTR FTN()void  size(2) Largest target is 1
		 -> NULL(), 

    MSSP_I2C_Interrupt_Configurations@i2c_obj$I2C_Report_Write_Collision	PTR FTN()void  size(2) Largest target is 1
		 -> NULL(), 

    MSSP_I2C_Master_call_slave@_ack	PTR unsigned char  size(1) Largest target is 1
		 -> _ack(COMRAM[1]), 

    MSSP_I2C_Master_call_slave@i2c_obj	PTR const struct . size(1) Largest target is 15
		 -> mssp_i2c(COMRAM[15]), 

    MSSP_I2C_Master_Read_Blocking@i2c_data	PTR unsigned char  size(1) Largest target is 1
		 -> ret_data_1(COMRAM[1]), ret_data_2(COMRAM[1]), ret_data_3(COMRAM[1]), 

    MSSP_I2C_Master_Read_Blocking@i2c_obj	PTR const struct . size(1) Largest target is 15
		 -> mssp_i2c(COMRAM[15]), 

    MSSP_I2C_Master_read_data_in_register@_ack	PTR unsigned char  size(1) Largest target is 1
		 -> _ack(COMRAM[1]), 

    MSSP_I2C_Master_read_data_in_register@i2c_obj	PTR const struct . size(1) Largest target is 15
		 -> mssp_i2c(COMRAM[15]), 

    MSSP_I2C_Master_read_data_in_register@ret_data	PTR unsigned char  size(1) Largest target is 1
		 -> ret_data_1(COMRAM[1]), ret_data_2(COMRAM[1]), ret_data_3(COMRAM[1]), 

    MSSP_I2C_Master_Send_Repeated_Start@i2c_obj	PTR const struct . size(1) Largest target is 15
		 -> mssp_i2c(COMRAM[15]), 

    MSSP_I2C_Master_Send_Start@i2c_obj	PTR const struct . size(1) Largest target is 15
		 -> mssp_i2c(COMRAM[15]), 

    MSSP_I2C_Master_Send_Stop@i2c_obj	PTR const struct . size(1) Largest target is 15
		 -> mssp_i2c(COMRAM[15]), 

    MSSP_I2C_Master_Write_Blocking@_ack	PTR unsigned char  size(1) Largest target is 1
		 -> _ack(COMRAM[1]), 

    MSSP_I2C_Master_Write_Blocking@i2c_obj	PTR const struct . size(1) Largest target is 15
		 -> mssp_i2c(COMRAM[15]), 

    port_regisrers	PTR volatile unsigned char [5] size(2) Largest target is 1
		 -> PORTA(BITBIGSFRllllll[1]), PORTB(BITBIGSFRllllll[1]), PORTC(BITBIGSFRllllll[1]), PORTD(BITBIGSFRllllll[1]), 
		 -> PORTE(BITBIGSFRllllll[1]), 

    RB4_interrupthandler_high	PTR FTN()void  size(2) Largest target is 1
		 -> NULL(), 

    RB4_interrupthandler_low	PTR FTN()void  size(2) Largest target is 1
		 -> NULL(), 

    RB5_interrupthandler_high	PTR FTN()void  size(2) Largest target is 1
		 -> NULL(), 

    RB5_interrupthandler_low	PTR FTN()void  size(2) Largest target is 1
		 -> NULL(), 

    RB6_interrupthandler_high	PTR FTN()void  size(2) Largest target is 1
		 -> NULL(), 

    RB6_interrupthandler_low	PTR FTN()void  size(2) Largest target is 1
		 -> NULL(), 

    RB7_interrupthandler_high	PTR FTN()void  size(2) Largest target is 1
		 -> NULL(), 

    RB7_interrupthandler_low	PTR FTN()void  size(2) Largest target is 1
		 -> NULL(), 

    S1310$CCP1_handler	PTR FTN()void  size(2) Largest target is 1
		 -> NULL(), 

    S1465$CCP2_handler	PTR FTN()void  size(2) Largest target is 0

    S2424$EXT_INTERRUPTHANDLE	PTR FTN()void  size(2) Largest target is 0

    S2462$EXT_INTERRUPTHANDLE_high	PTR FTN()void  size(2) Largest target is 0

    S2462$EXT_INTERRUPTHANDLE_low	PTR FTN()void  size(2) Largest target is 0

    S3057$Timer0_handler	PTR FTN()void  size(2) Largest target is 0

    S3207$Timer1_handler	PTR FTN()void  size(2) Largest target is 1
		 -> NULL(), 

    S3383$Timer2_handler	PTR FTN()void  size(2) Largest target is 1
		 -> NULL(), 

    S3508$Timer3_handler	PTR FTN()void  size(2) Largest target is 0

    S3733$USART_FRAMING_ERROR_INTERRUPT_HANDLER	PTR FTN()void  size(2) Largest target is 0

    S3733$USART_OVERRUN_ERROR_INTERRUPT_HANDLER	PTR FTN()void  size(2) Largest target is 0

    S3733$USART_RX_INTERRUPT_HANDLER	PTR FTN()void  size(2) Largest target is 0

    S3733$USART_TX_INTERRUPT_HANDLER	PTR FTN()void  size(2) Largest target is 0

    S4816$buffer	PTR unsigned char  size(2) Largest target is 0

    S4816$source	PTR const unsigned char  size(2) Largest target is 0

    S629$I2C_DefaultInterruptHandler	PTR FTN()void  size(2) Largest target is 1
		 -> NULL(), 

    S629$I2C_Report_Receive_Overflow	PTR FTN()void  size(2) Largest target is 1
		 -> NULL(), 

    S629$I2C_Report_Write_Collision	PTR FTN()void  size(2) Largest target is 1
		 -> NULL(), 

    S909$ADC_interruptHandler	PTR FTN()void  size(2) Largest target is 0

    select_result_format@ADC_conf$ADC_interruptHandler	PTR FTN()void  size(2) Largest target is 0

    send_start@ultra_pins	PTR struct . size(1) Largest target is 2
		 -> ultra_pins(BANK0[2]), 

    sp__memset	PTR void  size(2) Largest target is 0

    tc74_read_value@_ack	PTR unsigned char  size(1) Largest target is 1
		 -> _ack(COMRAM[1]), 

    tc74_read_value@i2c_obj	PTR const struct . size(1) Largest target is 15
		 -> mssp_i2c(COMRAM[15]), 

    tc74_read_value@ret_data	PTR unsigned char  size(1) Largest target is 1
		 -> ret_data_1(COMRAM[1]), ret_data_2(COMRAM[1]), ret_data_3(COMRAM[1]), 

    Timer0_init@Timer0$Timer0_handler	PTR FTN()void  size(2) Largest target is 0

    TIMER0_Interrupthandler	PTR FTN()void  size(2) Largest target is 1
		 -> NULL(), 

    timer0_mode@Timer0$Timer0_handler	PTR FTN()void  size(2) Largest target is 0

    timer0_prescaler_cfg@Timer0$Timer0_handler	PTR FTN()void  size(2) Largest target is 0

    timer0_register_size@Timer0$Timer0_handler	PTR FTN()void  size(2) Largest target is 0

    Timer1_1$Timer1_handler	PTR FTN()void  size(2) Largest target is 1
		 -> NULL(), 

    Timer1_init@Timer1	PTR const struct . size(1) Largest target is 5
		 -> Timer1_1(BANK0[5]), 

    Timer1_init@Timer1$Timer1_handler	PTR FTN()void  size(2) Largest target is 1
		 -> NULL(), 

    TIMER1_Interrupthandler	PTR FTN()void  size(2) Largest target is 1
		 -> NULL(), 

    timer1_mode_cfg@Timer1	PTR const struct . size(1) Largest target is 5
		 -> Timer1_1(BANK0[5]), 

    timer1_mode_cfg@Timer1$Timer1_handler	PTR FTN()void  size(2) Largest target is 1
		 -> NULL(), 

    timer1_osc_cfg@Timer1	PTR const struct . size(1) Largest target is 5
		 -> Timer1_1(BANK0[5]), 

    timer1_osc_cfg@Timer1$Timer1_handler	PTR FTN()void  size(2) Largest target is 1
		 -> NULL(), 

    timer1_reg_bit_cfg@Timer1	PTR const struct . size(1) Largest target is 5
		 -> Timer1_1(BANK0[5]), 

    timer1_reg_bit_cfg@Timer1$Timer1_handler	PTR FTN()void  size(2) Largest target is 1
		 -> NULL(), 

    Timer2_1$Timer2_handler	PTR FTN()void  size(2) Largest target is 1
		 -> NULL(), 

    Timer2_init@Timer2$Timer2_handler	PTR FTN()void  size(2) Largest target is 1
		 -> NULL(), 

    TIMER2_Interrupthandler	PTR FTN()void  size(2) Largest target is 1
		 -> NULL(), 

    Timer3_init@Timer3$Timer3_handler	PTR FTN()void  size(2) Largest target is 0

    TIMER3_Interrupthandler	PTR FTN()void  size(2) Largest target is 1
		 -> NULL(), 

    timer3_mode_cfg@Timer3$Timer3_handler	PTR FTN()void  size(2) Largest target is 0

    timer3_reg_bit_cfg@Timer3$Timer3_handler	PTR FTN()void  size(2) Largest target is 0

    tris_regisrers	PTR volatile unsigned char [5] size(2) Largest target is 1
		 -> TRISA(BITBIGSFRllllll[1]), TRISB(ABS[1]), TRISC(ABS[1]), TRISD(ABS[1]), 
		 -> TRISE(ABS[1]), 

    ultrasonic_initialize@ultra_pins	PTR struct . size(1) Largest target is 2
		 -> ultra_pins(BANK0[2]), 

    usart_async_rx_int@usart$USART_FRAMING_ERROR_INTERRUPT_HANDLER	PTR FTN()void  size(2) Largest target is 0

    usart_async_rx_int@usart$USART_OVERRUN_ERROR_INTERRUPT_HANDLER	PTR FTN()void  size(2) Largest target is 0

    usart_async_rx_int@usart$USART_RX_INTERRUPT_HANDLER	PTR FTN()void  size(2) Largest target is 0

    usart_async_rx_int@usart$USART_TX_INTERRUPT_HANDLER	PTR FTN()void  size(2) Largest target is 0

    usart_async_tx_int@usart$USART_FRAMING_ERROR_INTERRUPT_HANDLER	PTR FTN()void  size(2) Largest target is 0

    usart_async_tx_int@usart$USART_OVERRUN_ERROR_INTERRUPT_HANDLER	PTR FTN()void  size(2) Largest target is 0

    usart_async_tx_int@usart$USART_RX_INTERRUPT_HANDLER	PTR FTN()void  size(2) Largest target is 0

    usart_async_tx_int@usart$USART_TX_INTERRUPT_HANDLER	PTR FTN()void  size(2) Largest target is 0

    USART_FRAMERROR_Interrupthandler	PTR FTN()void  size(2) Largest target is 1
		 -> NULL(), 

    USART_OVERRUN_Interrupthandler	PTR FTN()void  size(2) Largest target is 1
		 -> NULL(), 

    USART_RX_Interrupthandler	PTR FTN()void  size(2) Largest target is 1
		 -> NULL(), 

    USART_TX_Interrupthandler	PTR FTN()void  size(2) Largest target is 1
		 -> NULL(), 

    vfprintf$0	PTR struct _IO_FILE size(1) Largest target is 12
		 -> sprintf@f(COMRAM[12]), 

    vfprintf$1	PTR const unsigned char  size(1) Largest target is 3
		 -> STR_1(CODE[3]), STR_2(CODE[3]), STR_3(CODE[3]), 

    vfprintf$2	PTR PTR void  size(1) Largest target is 1
		 -> sprintf@ap(COMRAM[1]), 


Critical Paths under _main in COMRAM

    _tc74_read_value->_MSSP_I2C_Master_read_data_in_register
    _MSSP_I2C_Master_read_data_in_register->_MSSP_I2C_Master_Read_Blocking
    _MSSP_I2C_Master_read_data_in_register->_MSSP_I2C_Master_Write_Blocking
    _led_turn_on->_GPIO_pIN_WRITE_LOGIC
    _led_turn_off->_GPIO_pIN_WRITE_LOGIC
    _keypad_get_value->_GPIO_pIN_WRITE_LOGIC
    _intitialized_functions->_MSSP_I2C_Init
    _ultrasonic_initialize->_GPIO_pIN_INTIALIZE
    _led_intialize->_GPIO_pIN_INTIALIZE
    _keypad_intialize->_GPIO_pIN_INTIALIZE
    _GPIO_pIN_INTIALIZE->_GPIO_pIN_WRITE_LOGIC
    _Timer1_init->_timer1_mode_cfg
    _Timer1_init->_timer1_osc_cfg
    _Timer1_init->_timer1_reg_bit_cfg
    _MSSP_I2C_Init->_I2C_Master_Mode_Clock_Configurations
    _I2C_Master_Mode_Clock_Configurations->___fltol
    ___fltol->___fladd
    ___fldiv->___xxtofl
    ___fladd->___fldiv
    _distance_ultrasonic->_measure_distance_
    _send_start->_GPIO_pIN_WRITE_LOGIC
    _measure_distance_->_GPIO_pIN_READ_LOGIC
    _measure_distance_->___lwdiv
    _MSSP_I2C_Master_call_slave->_MSSP_I2C_Master_Write_Blocking

Critical Paths under _interrupt_manager in COMRAM

    _interrupt_manager->_RB4_ISR
    _interrupt_manager->_RB5_ISR
    _interrupt_manager->_RB6_ISR
    _interrupt_manager->_RB7_ISR

Critical Paths under _main in BANK0

    None.

Critical Paths under _interrupt_manager in BANK0

    None.

Critical Paths under _main in BANK1

    None.

Critical Paths under _interrupt_manager in BANK1

    None.

Critical Paths under _main in BANK2

    None.

Critical Paths under _interrupt_manager in BANK2

    None.

Critical Paths under _main in BANK3

    None.

Critical Paths under _interrupt_manager in BANK3

    None.

Critical Paths under _main in BANK4

    None.

Critical Paths under _interrupt_manager in BANK4

    None.

Critical Paths under _main in BANK5

    None.

Critical Paths under _interrupt_manager in BANK5

    None.

Critical Paths under _main in BANK6

    None.

Critical Paths under _interrupt_manager in BANK6

    None.

Critical Paths under _main in BANK7

    None.

Critical Paths under _interrupt_manager in BANK7

    None.

Critical Paths under _main in BANK8

    None.

Critical Paths under _interrupt_manager in BANK8

    None.

Critical Paths under _main in BANK9

    None.

Critical Paths under _interrupt_manager in BANK9

    None.

Critical Paths under _main in BANK10

    None.

Critical Paths under _interrupt_manager in BANK10

    None.

Critical Paths under _main in BANK11

    None.

Critical Paths under _interrupt_manager in BANK11

    None.

Critical Paths under _main in BANK12

    None.

Critical Paths under _interrupt_manager in BANK12

    None.

Critical Paths under _main in BANK13

    None.

Critical Paths under _interrupt_manager in BANK13

    None.

Critical Paths under _main in BANK14

    None.

Critical Paths under _interrupt_manager in BANK14

    None.

Critical Paths under _main in BANK15

    None.

Critical Paths under _interrupt_manager in BANK15

    None.

Call Graph Tables:

 ---------------------------------------------------------------------------------
 (Depth) Function   	        Calls       Base Space   Used Autos Params    Refs
 ---------------------------------------------------------------------------------
 (0) _main                                                 1     1      0   95267
                                              0 BANK1      1     1      0
               _GPIO_pIN_WRITE_LOGIC
         _MSSP_I2C_Master_call_slave
                _distance_ultrasonic
             _intitialized_functions
                   _keypad_get_value
                       _led_turn_off
                        _led_turn_on
                    _tc74_read_value
 ---------------------------------------------------------------------------------
 (1) _tc74_read_value                                      5     0      5    5053
                                             10 COMRAM     5     0      5
         _MSSP_I2C_Master_Send_Start
          _MSSP_I2C_Master_Send_Stop
_MSSP_I2C_Master_read_data_in_regist
 ---------------------------------------------------------------------------------
 (2) _MSSP_I2C_Master_read_data_in_register                7     2      5    2859
                                              4 COMRAM     6     1      5
      _MSSP_I2C_Master_Read_Blocking
_MSSP_I2C_Master_Send_Repeated_Start
     _MSSP_I2C_Master_Write_Blocking
 ---------------------------------------------------------------------------------
 (3) _MSSP_I2C_Master_Send_Repeated_Start                  2     1      1     107
                                              1 COMRAM     1     0      1
 ---------------------------------------------------------------------------------
 (3) _MSSP_I2C_Master_Read_Blocking                        4     1      3     575
                                              1 COMRAM     3     0      3
 ---------------------------------------------------------------------------------
 (1) _led_turn_on                                          4     3      1    6920
                                              9 COMRAM     3     2      1
               _GPIO_pIN_WRITE_LOGIC
 ---------------------------------------------------------------------------------
 (1) _led_turn_off                                         4     3      1    7072
                                              9 COMRAM     3     2      1
               _GPIO_pIN_WRITE_LOGIC
 ---------------------------------------------------------------------------------
 (1) _keypad_get_value                                     8     6      2    7768
                                              9 COMRAM     7     5      2
                _GPIO_pIN_READ_LOGIC
               _GPIO_pIN_WRITE_LOGIC
 ---------------------------------------------------------------------------------
 (1) _intitialized_functions                               0     0      0   44380
                 _GPIO_pIN_INTIALIZE
                      _MSSP_I2C_Init
                        _Timer1_init
                   _keypad_intialize
                      _led_intialize
              _ultrasonic_initialize
 ---------------------------------------------------------------------------------
 (2) _ultrasonic_initialize                                1     0      1    8410
                                             12 COMRAM     1     0      1
                 _GPIO_pIN_INTIALIZE
 ---------------------------------------------------------------------------------
 (2) _led_intialize                                        4     3      1    8535
                                             12 COMRAM     3     2      1
                 _GPIO_pIN_INTIALIZE
 ---------------------------------------------------------------------------------
 (2) _keypad_intialize                                     4     3      1    9019
                                             12 COMRAM     3     2      1
       _GPIO_pIN_DIRECTION_INTIALIZE
                 _GPIO_pIN_INTIALIZE
 ---------------------------------------------------------------------------------
 (3) _GPIO_pIN_INTIALIZE                                   3     2      1    8246
                                              9 COMRAM     3     2      1
       _GPIO_pIN_DIRECTION_INTIALIZE
               _GPIO_pIN_WRITE_LOGIC
 ---------------------------------------------------------------------------------
 (4) _GPIO_pIN_DIRECTION_INTIALIZE                         7     6      1     483
                                              1 COMRAM     7     6      1
 ---------------------------------------------------------------------------------
 (2) _Timer1_init                                          4     3      1     687
                                              2 COMRAM     3     2      1
                    _timer1_mode_cfg
                     _timer1_osc_cfg
                 _timer1_reg_bit_cfg
 ---------------------------------------------------------------------------------
 (3) _timer1_reg_bit_cfg                                   1     0      1     120
                                              1 COMRAM     1     0      1
 ---------------------------------------------------------------------------------
 (3) _timer1_osc_cfg                                       1     0      1     120
                                              1 COMRAM     1     0      1
 ---------------------------------------------------------------------------------
 (3) _timer1_mode_cfg                                      1     0      1     164
                                              1 COMRAM     1     0      1
 ---------------------------------------------------------------------------------
 (2) _MSSP_I2C_Init                                        2     1      1    9483
                                             68 COMRAM     2     1      1
_I2C_Master_Mode_Clock_Configuration
      _I2C_Slave_Mode_Configurations
  _MSSP_I2C_Interrupt_Configurations
             _MSSP_I2C_Mode_GPIO_CFG
 ---------------------------------------------------------------------------------
 (3) _MSSP_I2C_Mode_GPIO_CFG                               0     0      0       0
 ---------------------------------------------------------------------------------
 (3) _MSSP_I2C_Interrupt_Configurations                    1     0      1     142
                                              1 COMRAM     1     0      1
 ---------------------------------------------------------------------------------
 (3) _I2C_Slave_Mode_Configurations                        2     1      1      98
                                              1 COMRAM     2     1      1
 ---------------------------------------------------------------------------------
 (3) _I2C_Master_Mode_Clock_Configurations                 2     1      1    8856
                                             66 COMRAM     2     1      1
                            ___fladd
                            ___fldiv
                            ___fltol
                           ___xxtofl
 ---------------------------------------------------------------------------------
 (4) ___xxtofl                                            14    10      4    1131
                                              1 COMRAM    14    10      4
 ---------------------------------------------------------------------------------
 (4) ___fltol                                             10     6      4     582
                                             56 COMRAM    10     6      4
                            ___fladd (ARG)
                            ___fldiv (ARG)
                           ___xxtofl (ARG)
 ---------------------------------------------------------------------------------
 (4) ___fldiv                                             25    17      8    3473
                                             15 COMRAM    25    17      8
                           ___xxtofl (ARG)
 ---------------------------------------------------------------------------------
 (4) ___fladd                                             16     8      8    3550
                                             40 COMRAM    16     8      8
                            ___fldiv (ARG)
                           ___xxtofl (ARG)
 ---------------------------------------------------------------------------------
 (1) _distance_ultrasonic                                  2     1      1    8032
                                             12 COMRAM     2     1      1
                  _measure_distance_
                         _send_start
 ---------------------------------------------------------------------------------
 (2) _send_start                                           1     0      1    6379
                                              9 COMRAM     1     0      1
               _GPIO_pIN_WRITE_LOGIC
 ---------------------------------------------------------------------------------
 (2) _GPIO_pIN_WRITE_LOGIC                                 8     6      2    6259
                                              1 COMRAM     8     6      2
 ---------------------------------------------------------------------------------
 (2) _measure_distance_                                    4     3      1    1509
                                              8 COMRAM     4     3      1
                _GPIO_pIN_READ_LOGIC
                            ___lwdiv
 ---------------------------------------------------------------------------------
 (3) ___lwdiv                                              7     3      4     314
                                              1 COMRAM     7     3      4
 ---------------------------------------------------------------------------------
 (2) _GPIO_pIN_READ_LOGIC                                  7     5      2     916
                                              1 COMRAM     7     5      2
 ---------------------------------------------------------------------------------
 (1) _MSSP_I2C_Master_call_slave                           4     0      4    9783
                                              4 COMRAM     4     0      4
         _MSSP_I2C_Master_Send_Start
          _MSSP_I2C_Master_Send_Stop
     _MSSP_I2C_Master_Write_Blocking
 ---------------------------------------------------------------------------------
 (3) _MSSP_I2C_Master_Write_Blocking                       4     1      3    1487
                                              1 COMRAM     3     0      3
 ---------------------------------------------------------------------------------
 (2) _MSSP_I2C_Master_Send_Stop                            2     1      1     260
                                              1 COMRAM     1     0      1
 ---------------------------------------------------------------------------------
 (2) _MSSP_I2C_Master_Send_Start                           2     1      1     260
                                              1 COMRAM     1     0      1
 ---------------------------------------------------------------------------------
 Estimated maximum stack depth 4
 ---------------------------------------------------------------------------------
 (Depth) Function   	        Calls       Base Space   Used Autos Params    Refs
 ---------------------------------------------------------------------------------
 (5) _interrupt_manager                                    0     0      0     176
              _ADC_handeler_funvtion
                           _CCP1_ISR
                           _CCP2_ISR
                           _INT0_ISR
                           _INT1_ISR
                           _INT2_ISR
                    _MSSP_I2C_BC_ISR
                       _MSSP_I2C_ISR
                            _RB4_ISR
                            _RB5_ISR
                            _RB6_ISR
                            _RB7_ISR
                         _TIMER0_ISR
                         _TIMER1_ISR
                         _TIMER2_ISR
                         _TIMER3_ISR
                       _USART_RX_ISR
                       _USART_TX_ISR
 ---------------------------------------------------------------------------------
 (6) _USART_TX_ISR                                         0     0      0       0
 ---------------------------------------------------------------------------------
 (6) _USART_RX_ISR                                         0     0      0       0
 ---------------------------------------------------------------------------------
 (6) _TIMER3_ISR                                           0     0      0       0
 ---------------------------------------------------------------------------------
 (6) _TIMER2_ISR                                           0     0      0       0
 ---------------------------------------------------------------------------------
 (6) _TIMER1_ISR                                           0     0      0       0
 ---------------------------------------------------------------------------------
 (6) _TIMER0_ISR                                           0     0      0       0
 ---------------------------------------------------------------------------------
 (6) _RB7_ISR                                              1     1      0      44
                                              0 COMRAM     1     1      0
 ---------------------------------------------------------------------------------
 (6) _RB6_ISR                                              1     1      0      44
                                              0 COMRAM     1     1      0
 ---------------------------------------------------------------------------------
 (6) _RB5_ISR                                              1     1      0      44
                                              0 COMRAM     1     1      0
 ---------------------------------------------------------------------------------
 (6) _RB4_ISR                                              1     1      0      44
                                              0 COMRAM     1     1      0
 ---------------------------------------------------------------------------------
 (6) _MSSP_I2C_ISR                                         0     0      0       0
 ---------------------------------------------------------------------------------
 (6) _MSSP_I2C_BC_ISR                                      0     0      0       0
 ---------------------------------------------------------------------------------
 (6) _INT2_ISR                                             0     0      0       0
 ---------------------------------------------------------------------------------
 (6) _INT1_ISR                                             0     0      0       0
 ---------------------------------------------------------------------------------
 (6) _INT0_ISR                                             0     0      0       0
 ---------------------------------------------------------------------------------
 (6) _CCP2_ISR                                             0     0      0       0
 ---------------------------------------------------------------------------------
 (6) _CCP1_ISR                                             0     0      0       0
 ---------------------------------------------------------------------------------
 (6) _ADC_handeler_funvtion                                0     0      0       0
 ---------------------------------------------------------------------------------
 Estimated maximum stack depth 6
 ---------------------------------------------------------------------------------

 Call Graph Graphs:

 _main (ROOT)
   _GPIO_pIN_WRITE_LOGIC
   _MSSP_I2C_Master_call_slave
     _MSSP_I2C_Master_Send_Start
     _MSSP_I2C_Master_Send_Stop
     _MSSP_I2C_Master_Write_Blocking
   _distance_ultrasonic
     _measure_distance_
       _GPIO_pIN_READ_LOGIC
       ___lwdiv
     _send_start
       _GPIO_pIN_WRITE_LOGIC
   _intitialized_functions
     _GPIO_pIN_INTIALIZE
       _GPIO_pIN_DIRECTION_INTIALIZE
       _GPIO_pIN_WRITE_LOGIC
     _MSSP_I2C_Init
       _I2C_Master_Mode_Clock_Configurations
         ___fladd
           ___fldiv (ARG)
             ___xxtofl (ARG)
           ___xxtofl (ARG)
         ___fldiv
         ___fltol
           ___fladd (ARG)
           ___fldiv (ARG)
           ___xxtofl (ARG)
         ___xxtofl
       _I2C_Slave_Mode_Configurations
       _MSSP_I2C_Interrupt_Configurations
       _MSSP_I2C_Mode_GPIO_CFG
     _Timer1_init
       _timer1_mode_cfg
       _timer1_osc_cfg
       _timer1_reg_bit_cfg
     _keypad_intialize
       _GPIO_pIN_DIRECTION_INTIALIZE
       _GPIO_pIN_INTIALIZE
     _led_intialize
       _GPIO_pIN_INTIALIZE
     _ultrasonic_initialize
       _GPIO_pIN_INTIALIZE
   _keypad_get_value
     _GPIO_pIN_READ_LOGIC
     _GPIO_pIN_WRITE_LOGIC
   _led_turn_off
     _GPIO_pIN_WRITE_LOGIC
   _led_turn_on
     _GPIO_pIN_WRITE_LOGIC
   _tc74_read_value
     _MSSP_I2C_Master_Send_Start
     _MSSP_I2C_Master_Send_Stop
     _MSSP_I2C_Master_read_data_in_register
       _MSSP_I2C_Master_Read_Blocking
       _MSSP_I2C_Master_Send_Repeated_Start
       _MSSP_I2C_Master_Write_Blocking

 _interrupt_manager (ROOT)
   _ADC_handeler_funvtion
   _CCP1_ISR
   _CCP2_ISR
   _INT0_ISR
   _INT1_ISR
   _INT2_ISR
   _MSSP_I2C_BC_ISR
   _MSSP_I2C_ISR
   _RB4_ISR
   _RB5_ISR
   _RB6_ISR
   _RB7_ISR
   _TIMER0_ISR
   _TIMER1_ISR
   _TIMER2_ISR
   _TIMER3_ISR
   _USART_RX_ISR
   _USART_TX_ISR

 Address spaces:
Name               Size   Autos  Total    Cost      Usage
BIGRAM             F7F      0       0      49        0.0%
EEDATA             400      0       0       0        0.0%
BITBANK14          100      0       0      33        0.0%
BANK14             100      0       0      34        0.0%
BITBANK13          100      0       0      31        0.0%
BANK13             100      0       0      32        0.0%
BITBANK12          100      0       0      29        0.0%
BANK12             100      0       0      30        0.0%
BITBANK11          100      0       0      27        0.0%
BANK11             100      0       0      28        0.0%
BITBANK10          100      0       0      25        0.0%
BANK10             100      0       0      26        0.0%
BITBANK9           100      0       0      23        0.0%
BANK9              100      0       0      24        0.0%
BITBANK8           100      0       0      21        0.0%
BANK8              100      0       0      22        0.0%
BITBANK7           100      0       0      19        0.0%
BANK7              100      0       0      20        0.0%
BITBANK6           100      0       0      17        0.0%
BANK6              100      0       0      18        0.0%
BITBANK5           100      0       0      15        0.0%
BANK5              100      0       0      16        0.0%
BITBANK4           100      0       0      13        0.0%
BANK4              100      0       0      14        0.0%
BITBANK3           100      0       0      10        0.0%
BANK3              100      0       0      11        0.0%
BITBANK2           100      0       0       8        0.0%
BANK2              100      0       0       9        0.0%
BITBANK1           100      0       0       6        0.0%
BANK1              100      1       1       7        0.4%
BITBANK15           80      0       0      35        0.0%
BANK15              80      0       0      36        0.0%
BITBANK0            80      0       0       4        0.0%
BANK0               80      0      80       5      100.0%
BITCOMRAM           7E      0       0       0        0.0%
COMRAM              7E     46      7D       1       99.2%
BITBIGSFRhllhh      18      0       0      38        0.0%
BITBIGSFRhh          D      0       0      37        0.0%
BITBIGSFRllllhh      6      0       0      46        0.0%
BITBIGSFRhlll        5      0       0      39        0.0%
BITBIGSFRlllhll      4      0       0      43        0.0%
BITBIGSFRlllllh      4      0       0      47        0.0%
BITBIGSFRllllll      4      0       0      48        0.0%
BITBIGSFRlllhll      3      0       0      44        0.0%
BITBIGSFRlllhll      1      0       0      42        0.0%
BITBIGSFRlllhlh      1      0       0      41        0.0%
BITBIGSFRlllhh       1      0       0      40        0.0%
BITBIGSFRlllhll      1      0       0      45        0.0%
BIGSFR               0      0       0     200        0.0%
BITSFR               0      0       0     200        0.0%
SFR                  0      0       0     200        0.0%
STACK                0      0       0       2        0.0%
NULL                 0      0       0       0        0.0%
ABS                  0      0      FE      12        0.0%
DATA                 0      0      FE       3        0.0%
CODE                 0      0       0       0        0.0%


Microchip Technology PIC18 Macro Assembler V2.45 build 20230818022343 
Symbol Table                                                                                   Fri Apr 12 03:37:34 2024

                                  _led_intialize 2EFA                                     ___fldiv@aexp 0028  
                                   ___fldiv@bexp 0027                                     ___fldiv@sign 0020  
                                    _SSPSTATbits 0FC7                            _CCP2_Interrupthandler 00F6  
                                            l232 2E8E                                              l225 2F5E  
                                            l324 32E2                                              l343 330C  
                                            l239 2EF8                         ??_intitialized_functions 0047  
                                            l281 29C8                                              l346 340A  
                                            l267 3020                                              l349 3356  
                                            l358 2C18                                              l359 2C36  
                                            l802 3266                                              l804 3268  
                                            l820 3230                                              l900 2BA2  
                                            l812 3322                                              l806 3276  
                                            l822 3232                                              l830 30A4  
                                            l814 3324                                              l903 338C  
                                            l824 3240                                              l816 3332  
                                            l809 3286                                              l817 3334  
                                            l834 30A8                                              l906 3166  
                                            l666 26CC                                              l827 3250  
                                            l836 30B6                                              l692 307E  
                                            l685 27DC                                              l853 2C5E  
                                            l782 2506                                              l862 2CB0  
                                            l839 30DC                                              l776 2490  
                                            l880 2D3A                                              l857 2C8A  
                                            l849 2C5C                                              l794 25A6  
                                            l866 2CBE                                              l883 32B8  
                                            l699 2A6C                                              l897 343C  
                                            _PR2 0FCB                                              _ret 00FF  
     MSSP_I2C_Master_Send_Repeated_Start@i2c_obj 0002                                              wreg 0FE8  
                                   ?_led_turn_on 000A                            _Int2_interrupthandler 00EA  
                       ??_MSSP_I2C_Mode_GPIO_CFG 0002                  ??_MSSP_I2C_Master_Read_Blocking 0005  
                    __end_of_GPIO_pIN_READ_LOGIC 2A6E                                  __end_of_RB4_ISR 33F6  
                                __end_of_RB5_ISR 33DC                                  __end_of_RB6_ISR 33C2  
                                __end_of_RB7_ISR 33A8                                     ___fltol@exp1 0042  
                                           l2040 28E2                                             l1325 2A82  
                                           l1327 2B0C                                             l2241 2E24  
                                           l2401 2476                                             l2234 2E1C  
                                           l2330 20E6                                             l1362 31E0  
                                           l1355 2DB0                                             l2412 240E  
                                           l2325 22C2                                             l2405 23B2  
                                           l1349 2D92                                             l2271 1872  
                                           l2327 2122                                             l2280 1B42  
                                           l2272 1860                                             l2336 2168  
                                           l2273 1826                                             l1369 321A  
                                           l2338 21E0                                             l2339 21CE  
                                           l1740 3122                                             l2288 198C  
                                           l1728 1658                                             l2297 1A5C  
                                           l6001 22B6                                             l2298 1A4A  
                                           l6003 22B8                                             l6011 27DE  
                                           l1691 12BC                                             l1684 118E  
                                           l6101 29CA                                             l6021 2834  
                                           l6013 27F4                                             l2398 231A  
                                           l6111 2A6A                                             l6103 29DE  
                                           l6023 2844                                             l6105 29FE  
                                           l6033 286E                                             l6025 2848  
                                           l6017 2808                                             l6201 31A8  
                                           l6121 305A                                             l6107 2A0E  
                                           l6051 28D2                                             l6043 2896  
                                           l6035 2878                                             l6027 2856  
                                           l6019 2832                                             l6131 3374  
                                           l6211 31FA                                             l6203 31C0  
                                           l6123 307C                                             l6115 3022  
                                           l6109 2A16                                             l6221 2DCC  
                                           l6045 28A2                                             l6037 2882  
                                           l6061 232A                                             l6141 3164  
                                           l6133 3438                                             l6213 3200  
                                           l6205 31C6                                             l6117 3032  
                                           l6151 3080                                             l6231 2E06  
                                           l6223 2DD4                                             l6047 28B2  
                                           l6071 2368                                             l6063 2340  
                                           l6055 22C6                                             l6127 2B0E  
                                           l6135 3124                                             l6215 3218  
                                           l6207 31DE                                             l6119 3052  
                                           l6311 2EFA                                             l6143 330E  
                                           l6161 30DC                                             l6153 3090  
                                           l6233 2E0E                                             l6225 2DDC  
                                           l6217 2DB2                                             l6401 3342  
                                           l6049 28C2                                             l6081 23F0  
                                           l6073 239A                                             l6057 22D6  
                                           l6129 2B26                                             l6137 312C  
                                           l6209 31E2                                             l6321 2F42  
                                           l6313 2EFE                                             l6145 331E  
                                           l6155 30A0                                             l6235 2E10  
                                           l6227 2DEA                                             l6219 2DBA  
                                           l6411 2BC4                                             l6403 334A  
                                           l6091 2446                                             l6083 23FE  
                                           l6075 239C                                             l6067 2354  
                                           l6059 22E4                                             l6139 3162  
                                           l6331 2FDA                                             l6323 2F52  
                                           l6315 2F14                                             l6171 2C6C  
                                           l6147 3334                                             l6157 30C6  
                                           l6237 2E16                                             l6229 2DF0  
                                           l6413 2BD4                                             l6405 2BA4  
                                           l5701 171A                                             l6093 2456  
                                           l6085 241C                                             l6077 23A8  
                                           l6069 235C                                             l6501 2AF8  
                                           l6341 2FEC                                             l6333 2FDE  
                                           l6325 2F56                                             l6317 2F30  
                                           l6309 2EFA                                             l6181 2CBE  
                                           l6173 2C76                                             l6165 2C38  
                                           l6159 30D2                                             l6423 2C08  
                                           l6415 2BDC                                             l6407 2BA8  
                                           l5703 172A                                             l5711 1754  
                                           l6095 2464                                             l6087 241E  
                                           l6079 23E4                                             l6431 2488  
                                           l6191 2D6E                                             l6503 2B06  
                                           l5631 25DC                                             l6351 3002  
                                           l6343 2FEE                                             l6319 2F32  
                                           l6175 2C86                                             l6167 2C48  
                                           l6361 3286                                             l6425 2C20  
                                           l6417 2BE2                                             l6409 2BB8  
                                           l5801 195C                                             l5721 178C  
                                           l5713 1764                                             l5705 173A  
                                           l6097 2466                                             l6089 2422  
                                           l6441 24E6                                             l6433 2492  
                                           l6193 2D74                                             l6185 2D3C  
                                           l6505 2B08                                             l5633 25E4  
                                           l5641 26CA                                             l6353 300E  
                                           l6345 2FFE                                             l6329 2FC2  
                                           l6601 2E5E                                             l6177 2C9C  
                                           l6169 2C58                                             l6419 2BEE  
                                           l5651 26E2                                             l5803 196C  
                                           l5731 17A0                                             l5723 1790  
                                           l5715 1776                                             l5707 174A  
                                           l6443 24EC                                             l6451 2522  
                                           l6435 24AA                                             l6195 2D8C  
                                           l6187 2D54                                             l6507 2B0A  
                                           l5635 263A                                             l5627 25A8  
                                           l6355 3010                                             l6339 2FE2  
                                           l6611 2E90                                             l6603 2E6E  
                                           l6179 2CAC                                             l6371 2CE0  
                                           l6357 3252                                             l5661 27B0  
                                           l5653 2702                                             l5821 19EE  
                                           l5813 19C6                                             l5805 197C  
                                           l5741 17B4                                             l5733 17A4  
                                           l5725 1794                                             l5717 1784  
                                           l5709 174C                                             l5901 1FBC  
                                           l6461 255E                                             l6453 2526  
                                           l6445 2504                                             l6437 24B6  
                                           l6429 2478                                             l6189 2D56  
                                           l6197 2D96                                             l6509 2B0C  
                                           l5629 25BC                                             l6621 2EC8  
                                           l6613 2E90                                             l6605 2E7E  
                                           l6381 2D2C                                             l6373 2CE4  
                                           l8301 1234                                             l6359 3262  
                                           l6383 321C                                             l6711 32A0  
                                           l5655 270A                                             l5663 27DA  
                                           l5823 19F6                                             l5815 19D0  
                                           l5807 19A2                                             l5831 1A1A  
                                           l5751 17C8                                             l5743 17B8  
                                           l5735 17A8                                             l5727 1798  
                                           l5719 1788                                             l5671 1684  
                                           l5911 1FF6                                             l5903 1FCC  
                                           l6471 259E                                             l6463 2576  
                                           l6455 253E                                             l6447 250C  
                                           l6439 24CE                                             l6199 2DAE  
                                           l5639 268A                                             l6631 28E4  
                                           l6623 2ED8                                             l6615 2E94  
                                           l6607 2E82                                             l6375 2D04  
                                           l6367 2CC0                                             l8311 1274  
                                           l6385 322C                                             l5657 2760  
                                           l5649 26CE                                             l5841 1A6C  
                                           l5833 1A1E                                             l5825 19FA  
                                           l5817 19DE                                             l5809 19B2  
                                           l5761 1840                                             l5753 17F2  
                                           l5745 17BC                                             l5737 17AC  
                                           l5729 179C                                             l5681 16C0  
                                           l5673 1690                                             l5913 200C  
                                           l5905 1FDC                                             l6473 25A0  
                                           l6465 257C                                             l6457 2544  
                                           l6449 251A                                             l6481 2A7E  
                                           l6393 32E4                                             l6633 2904  
                                           l6625 2EE8                                             l6617 2EAA  
                                           l6377 2D0C                                             l6369 2CD0  
                                           l8401 156E                                             l8313 1290  
                                           l8241 101A                                             l6387 3250  
                                           l6707 3288                                             l5851 1AD2  
                                           l5843 1A78                                             l5835 1A2C  
                                           l5827 1A0A                                             l5819 19E0  
                                           l5771 1880                                             l5763 1844  
                                           l5755 180E                                             l5747 17C0  
                                           l5739 17B0                                             l5691 16F0  
                                           l5683 16D0                                             l5675 169E  
                                           l5931 2060                                             l5915 201C  
                                           l5923 203C                                             l5907 1FDE  
                                           l6467 2594                                             l6459 255C  
                                           l6475 25A4                                             l6491 2AB8  
                                           l6483 2A84                                             l6395 32FC  
                                           l6651 292E                                             l6643 291C  
                                           l6635 2914                                             l6627 2EEC  
                                           l6619 2EC6                                             l6379 2D1C  
                                           l8411 15DA                                             l8403 1586  
                                           l8331 12FC                                             l8315 1298  
                                           l8307 1254                                             l8251 1082  
                                           l8243 1032                                             l6709 3290  
                                           l5861 1B1A                                             l5853 1AE2  
                                           l5845 1A86                                             l5837 1A42  
                                           l5829 1A0C                                             l5781 18C2  
                                           l5773 1890                                             l5765 1852  
                                           l5757 181E                                             l5749 17C4  
                                           l5693 1702                                             l5685 16D2  
                                           l5677 16A0                                             l5941 20B2  
                                           l5933 207A                                             l5925 204C  
                                           l5917 2024                                             l5909 1FE6  
                                           l6469 2596                                             l6493 2AD4  
                                           l6485 2AA0                                             l6397 3304  
                                           l6653 2930                                             l6637 2918  
                                           l8421 1640                                             l8413 15EC  
                                           l8405 1598                                             l8341 133C  
                                           l8333 130E                                             l8309 1264  
                                           l8317 12A8                                             l8325 12BC  
                                           l8261 10DE                                             l8253 1092  
                                           l8245 1042                                             l6399 3336  
                                           l5863 1B1C                                             l5855 1B02  
                                           l5847 1AC0                                             l5791 18F0  
                                           l5783 18D0                                             l5767 1854  
                                           l5759 1834                                             l5695 1704  
                                           l5679 16B0                                             l5687 16DA  
                                           l5951 210E                                             l5943 20C2  
                                           l5935 208A                                             l5927 204C  
                                           l5919 2028                                             l6495 2AE2  
                                           l6487 2AA8                                             l6479 2A6E  
                                           l6671 29A4                                             l6655 2940  
                                           l6591 2E26                                             l8415 1604  
                                           l8407 15B0                                             l8423 1658  
                                           l8351 137A                                             l8343 1344  
                                           l8335 131A                                             l8271 113E  
                                           l8263 10F6                                             l8255 10A2  
                                           l8247 105A                                             l8239 1016  
                                           l5865 1B22                                             l5857 1B06  
                                           l5849 1AC2                                             l5793 18FA  
                                           l5785 18DC                                             l5777 18A4  
                                           l5769 185E                                             l5697 170A  
                                           l5689 16EA                                             l5961 214E  
                                           l5953 2110                                             l5945 20D6  
                                           l5937 209A                                             l5881 1F56  
                                           l5873 1F2A                                             l6497 2AF4  
                                           l6489 2AB0                                             l6673 29A6  
                                           l6665 2962                                             l6657 294E  
                                           l6649 2920                                             l6593 2E26  
                                           l6681 32C2                                             l8425 1668  
                                           l8417 1616                                             l8409 15C2  
                                           l8361 13DE                                             l8345 134C  
                                           l8337 1322                                             l8329 12D0  
                                           l8353 1396                                             l8281 1198  
                                           l8273 114E                                             l8265 1106  
                                           l8257 10BA                                             l8249 106A  
                                           l6691 3408                                             l5867 1B30  
                                           l5859 1B14                                             l5787 18E0  
                                           l5779 18B4                                             l5795 1900  
                                           l5699 1718                                             l5971 218A  
                                           l5963 2158                                             l5955 2120  
                                           l5947 20E4                                             l5939 20AA  
                                           l5891 1F90                                             l5883 1F66  
                                           l5875 1F36                                             l6499 2AF6  
                                           l8435 26B4                                             l6675 29B6  
                                           l6667 2972                                             l6659 295E  
                                           l6595 2E2A                                             l6683 32DA  
                                           l8419 162E                                             l8371 144A  
                                           l8363 13F6                                             l8355 13A2  
                                           l8347 1358                                             l8339 132A  
                                           l8291 11E0                                             l8283 119C  
                                           l8275 1166                                             l8267 1116  
                                           l8259 10CE                                             l8437 27C4  
                                           l6685 33F6                                             l5869 1B32  
                                           l5797 1926                                             l5789 18EE  
                                           l5981 21FC                                             l5973 2198  
                                           l5965 2166                                             l5957 2132  
                                           l5949 20F0                                             l5893 1F96  
                                           l5885 1F76                                             l5877 1F44  
                                           l6861 30FA                                             l6677 29B8  
                                           l6669 2982                                             l6597 2E40  
                                           l8381 14B0                                             l8373 145C  
                                           l8365 1408                                             l8357 13B4  
                                           l8349 136A                                             l8293 11F0  
                                           l8285 11AC                                             l8277 1176  
                                           l8269 112E                                             l6687 33F6  
                                           l5799 195A                                             l5991 2268  
                                           l5983 220A                                             l5975 21C6  
                                           l5959 2148                                             l5967 2178  
                                           l5895 1F9C                                             l5887 1F78  
                                           l5879 1F46                                             l6863 3102  
                                           l6599 2E5C                                             l6679 32BA  
                                           l8391 151C                                             l8383 14C8  
                                           l8375 1474                                             l8367 1420  
                                           l8359 13CC                                             l8295 1200  
                                           l8287 11C8                                             l8279 118E  
                                           l6689 33FE                                             l5993 2282  
                                           l5985 2234                                             l5969 2186  
                                           l5897 1FAA                                             l5889 1F80  
                                           l6865 310A                                             l6857 30DE  
                                           l8393 152E                                             l8385 14DA  
                                           l8377 1486                                             l8369 1432  
                                           l8297 1214                                             l8289 11D0  
                                           l5995 229E                                             l5979 21F0  
                                           l5987 2238                                             l5899 1FAC  
                                           l6867 3112                                             l6859 30F2  
                                           l8395 1546                                             l8387 14F2  
                                           l8379 149E                                             l8299 1224  
                                           l5997 22A2                                             l5989 2252  
                                           l6869 311A                                             l8389 1504  
                                           l5999 22B0                                             l8399 155C  
                                           STR_1 1011                                             _LATA 0F89  
                                           _LATB 0F8A                                             _LATC 0F8B  
                                           _LATD 0F8C                                             _LATE 0F8D  
                                           u5000 220A                                             u5001 2206  
                                           u5010 2252                                             u5011 224E  
                                           u5020 2282                                             u5100 28C2  
                                           u5021 227E                                             u5101 28BE  
                                           u5030 22B0                                             u5110 22D6  
                                           u5031 22AC                                             u5111 22D2  
                                           u5040 27F4                                             u5200 2464  
                                           u5120 22E4                                             u4320 25BC  
                                           u5041 27F0                                             u5201 2460  
                                           u5121 22E0                                             u4321 25B8  
                                           u5210 29DE                                             u5050 2828  
                                           u5130 2340                                             u4330 25DC  
                                           u5211 29DA                                             u5131 233C  
                                           u4331 25D8                                             u5300 30A0  
                                           u5220 29FE                                             u4404 2728  
                                           u4500 1784                                             u4420 169E  
                                           u5060 2856                                             u5140 2396  
                                           u5301 309C                                             u5221 29FA  
                                           u4405 2724                                             u4501 1780  
                                           u4421 169A                                             u5061 2852  
                                           u5141 2392                                             u5310 30B6  
                                           u5230 2A0E                                             u4414 277E  
                                           u4510 17F2                                             u4430 16B0  
                                           u5070 286A                                             u5150 23E0  
                                           u5311 30B2                                             u5231 2A0A  
                                           u4415 277A                                             u4511 17EE  
                                           u4431 16AC                                             u5071 2866  
                                           u5055 281E                                             u5151 23DC  
                                           u5320 30C6                                             u4600 18D0  
                                           u4520 180A                                             u4440 16C0  
                                           u5080 2892                                             u5160 23FE  
                                           u5400 2D54                                             u4360 26A0  
                                           u4344 2602                                             u5321 30C2  
                                           u4601 18CC                                             u4521 1804  
                                           u4441 16BC                                             u5081 288E  
                                           u5161 23FA                                             u5401 2D50  
                                           u4361 269A                                             u4345 25FE  
                                           u4610 18EE                                             u4530 180C  
                                           u4450 1702                                             u5090 28B2  
                                           u5170 240E                                             u5410 2D6E  
                                           u4370 26A2                                             u4354 2658  
                                           u5250 3032                                             u5330 2C48  
                                           u4611 18EA                                             u4451 16FE  
                                           u5091 28AE                                             u5171 240A  
                                           u5411 2D6A                                             u4355 2654  
                                           u5251 302E                                             u5331 2C44  
                                           u5244 2A5E                                             u5500 2E06  
                                           u4380 26E2                                             u4700 1A2C  
                                           u4620 1926                                             u4540 1834  
                                           u4460 1718                                             u5180 241C  
                                           u5420 2D8C                                             u5260 3052  
                                           u5340 2C58                                             u5245 2A5A  
                                           u5501 2E02                                             u4381 26DE  
                                           u4701 1A28                                             u4621 1922  
                                           u4541 1830                                             u4461 1714  
                                           u5181 2418                                             u5421 2D88  
                                           u5261 304E                                             u5341 2C54  
                                           u4390 2702                                             u4710 1A42  
                                           u4630 196C                                             u4550 1852  
                                           u4470 172A                                             u5190 2456  
                                           u5430 2DAE                                             u5350 2C6C  
                                           u5270 331E                                             u4391 26FE  
                                           u4711 1A3E                                             u4631 1968  
                                           u4551 184E                                             u4471 1726  
                                           u5191 2452                                             u5431 2DAA  
                                           u5351 2C68                                             u5271 331A  
                                           u5600 3262                                             u4800 1B30  
                                           u4720 1A58                                             u4640 19A2  
                                           u4560 1872                                             u4480 173A  
                                           u5440 31C0                                             u5360 2C86  
                                           u5280 3332                                             u5601 325E  
                                           u4801 1B2C                                             u4721 1A54  
                                           u4641 199E                                             u4561 186E  
                                           u4481 1736                                             u5441 31BC  
                                           u5361 2C82                                             u5281 332E  
                                           u5610 3276                                             u5290 3090  
                                           u4730 1A6C                                             u4650 19B2  
                                           u4570 1880                                             u4490 1776  
                                           u4810 1F44                                             u5450 31DE  
                                           u5370 2C98                                             u5611 3272  
                                           u5291 308C                                             u4731 1A68  
                                           u4651 19AE                                             u4571 187C  
                                           u4491 1772                                             u4811 1F40  
                                           u5451 31DA                                             u5371 2C94  
                                           u5620 3286                                             u5700 2C18  
                                           u4740 1A86                                             u4660 19DE  
                                           u4580 1890                                             u4900 20E4  
                                           u4820 1F56                                             u5460 31FA  
                                           u5380 2CAC                                             u8100 1176  
                                           u5621 3282                                             u5701 2C14  
                                           u4741 1A82                                             u4661 19DA  
                                           u4581 188C                                             u4901 20E0  
                                           u4821 1F52                                             u5461 31F6  
                                           u5381 2CA8                                             u8101 1172  
                                           u4750 1AC0                                             u4670 19EE  
                                           u4590 18C2                                             u4910 210E  
                                           u4830 1F66                                             u5710 2488  
                                           u5470 3218                                             u5390 2CBE  
                                           u5630 2CD0                                             u8110 11AC  
                                           u4751 1ABC                                             u4671 19EA  
                                           u4591 18BE                                             u4911 210A  
                                           u4831 1F62                                             u5711 2484  
                                           u5471 3214                                             u5391 2CBA  
                                           u5631 2CCC                                             u8111 11A8  
                                           u5480 2DCC                                             u4760 1AD2  
                                           u4680 1A0A                                             u4920 2132  
                                           u4840 1FAA                                             u5720 24AA  
                                           u5800 2A7E                                             u5560 2F52  
                                           u5640 2CE0                                             u8200 137A  
                                           u8120 11F0                                             u8040 10A2  
                                           u5481 2DC8                                             u4761 1ACE  
                                           u4681 1A06                                             u4921 212E  
                                           u4841 1FA6                                             u5721 24A6  
                                           u5801 2A7A                                             u5561 2F4E  
                                           u5641 2CDC                                             u8201 1376  
                                           u8121 11EC                                             u8041 109E  
                                           u5650 322C                                             u5490 2DEA  
                                           u4770 1AE2                                             u4690 1A1A  
                                           u4930 2148                                             u4850 1FBC  
                                           u5730 24CE                                             u5570 2FDA  
                                           u8210 13B4                                             u8130 1200  
                                           u8050 10DE                                             u5651 3228  
                                           u5491 2DE6                                             u4771 1ADE  
                                           u4691 1A16                                             u4931 2144  
                                           u4851 1FB8                                             u5731 24CA  
                                           u5571 2FD6                                             u5555 2F40  
                                           u8211 13B0                                             u8131 11FC  
                                           u8051 10DA                                             u5660 3240  
                                           u4780 1B02                                             u4940 2166  
                                           u4860 1FCC                                             u5740 24E6  
                                           u5580 2FFE                                             u5900 2E7E  
                                           u8300 152E                                             u8220 13DE  
                                           u8140 1224                                             u8060 1106  
                                           u5661 323C                                             u4781 1AFE  
                                           u4941 2162                                             u4861 1FC8  
                                           u5741 24E2                                             u5581 2FFA  
                                           u5557 2F42                                             u5901 2E7A  
                                           u8301 152A                                             u8221 13DA  
                                           u8141 1220                                             u8061 1102  
                                           u5670 3250                                             u4790 1B14  
                                           u4950 2186                                             u4870 200C  
                                           u5750 2504                                             u5590 3020  
                                           u8310 1558                                             u8230 1408  
                                           u8150 1234                                             u8070 1116  
                                           u5671 324C                                             u4791 1B10  
                                           u4951 2182                                             u4871 2008  
                                           u5751 2500                                             u5591 301C  
                                           u8311 1554                                             u8231 1404  
                                           u8151 1230                                             u8071 1112  
                                           u5680 2BD4                                             u4960 2198  
                                           u4880 204C                                             u5760 253E  
                                           u5920 2EE8                                             u8320 156E  
                                           u8240 1432                                             u8160 1264  
                                           u8080 113E                                             u5681 2BD0  
                                           u4961 2194                                             u4881 2048  
                                           u5761 253A                                             u5921 2EE4  
                                           u8321 156A                                             u8241 142E  
                                           u8161 1260                                             u8081 113A  
                                           u5690 2C04                                             u4970 21C6  
                                           u4890 20C2                                             u5770 255C  
                                           u5930 2904                                             u8330 1598  
                                           u8250 145C                                             u8170 1274  
                                           u8090 114E                                             u5691 2C00  
                                           u4971 21C2                                             u4891 20BE  
                                           u5771 2558                                             u5931 2900  
                                           u5915 2ED6                                             u8331 1594  
                                           u8251 1458                                             u8171 1270  
                                           u8091 114A                                             u4980 21DC  
                                           u5780 2576                                             u5940 2914  
                                           u8340 15C2                                             u8260 1486  
                                           u8180 12B8                                             u4981 21D8  
                                           u5781 2572                                             u5941 2910  
                                           u5917 2ED8                                             u8341 15BE  
                                           u8261 1482                                             u8181 12B4  
                                           u4990 21F0                                             u5790 2594  
                                           u5950 2940                                             u8350 15EC  
                                           u8270 14B0                                             u8190 12CC  
                                           u4991 21EC                                             u5791 2590  
                                           u5951 293C                                             u8351 15E8  
                                           u8271 14AC                                             u8191 12C8  
                                           u8407 1062                                             u5960 2982  
                                           u8360 1616                                             u8280 14DA  
                                           u5961 297E                                             u8361 1612  
                                           u8281 14D6                                             u8417 108A  
                                           u5970 29B6                                             u8370 1640  
                                           u8290 1504                                             u5971 29B2  
                                           u8371 163C                                             u8291 1500  
                                           u8427 11CA                                             u5980 29C8  
                                           u8380 1668                                             u5981 29C4  
                                           u8381 1664                                             u8437 1292  
                                           u5895 2E6C                                             u8447 1304  
                                           u5897 2E6E                                             u8457 1332  
                                           u8467 1360                                             u8477 2D32  
                                           u8397 103A                                             u8487 2954  
                                           u8497 3344                                             _TMR1 0FCE  
                                           _TMR2 0FCC                                             __ack 0062  
                                           _led4 007D                                             _led6 007C  
                                           _main 1016                                 __end_of_CCP1_ISR 345E  
                               __end_of_CCP2_ISR 345A                          tc74_read_value@ret_data 000E  
                                           fsr1h 0FE2                                             fsr2h 0FDA  
                                           indf1 0FE7                                             indf2 0FDF  
                                           fsr1l 0FE1                                             fsr2l 0FD9  
                                           btemp 007E                                             prodl 0FF3  
                                           start 000E                                  ___fldiv@new_exp 0021  
                                  ?_led_turn_off 000A                                   ?_led_intialize 000D  
                                   ___param_bank 0000                            GPIO_pIN_INTIALIZE@ret 000C  
                                    ?_TIMER0_ISR 0001                                      ?_TIMER1_ISR 0001  
                                    ?_TIMER2_ISR 0001                                      ?_TIMER3_ISR 0001  
                               __end_of_INT0_ISR 3456                                 __end_of_INT1_ISR 3452  
                               __end_of_INT2_ISR 344E                    __end_of_ultrasonic_initialize 330E  
                                  ___fltol@sign1 0041                                  __end_of___fladd 1B44  
                                          ?_main 0001                                  __end_of___fldiv 22C4  
                                          _EEADR 0FA9                                  __end_of___fltol 28E4  
                    ??_MSSP_I2C_Master_Send_Stop 0003                                  __end_of___lwdiv 2E26  
                                          i2l541 345C                                            i2l493 3460  
                                          i2l593 3458                                            i2l890 3444  
                                          i2l894 3448                                            _RCREG 0FAE  
                            relay_turn_off@F3070 0057                                            _TMR0H 0FD7  
                                          _TMR1H 0FCF                                            _TMR0L 0FD6  
                                          _TMR1L 0FCE                                            _TMR3H 0FB3  
                                          _TMR3L 0FB2                                            _SPBRG 0FAF  
                                          _PORTA 0F80                                            _PORTB 0F81  
                                          _PORTC 0F82                                            _PORTD 0F83  
                                          _PORTE 0F84                                            _TRISA 0F92  
                                          _TRISB 0F93                                            _TRISC 0F94  
                                          _TRISD 0F95                                            _TRISE 0F96  
                                          _TXREG 0FAD                                  _timer1_mode_cfg 2D3C  
                           _ADC_INTERRUPTHANDLER 004D                    distance_ultrasonic@l_variable 000E  
                       __end_of_keypad_get_value 29CA                                            _ccp1_ 0080  
                                          _flag1 0066                                            _flag2 0065  
                                          _flag3 0064                                            _flag4 0063  
                                          _led_1 006A                                            _led_2 0069  
                       GPIO_pIN_READ_LOGIC@logic 0003                MSSP_I2C_Master_call_slave@i2c_obj 0005  
                                          tablat 0FF5                                            ttemp5 007F  
                                          ttemp6 0082                                            ttemp7 0086  
                                          status 0FD8                                            wtemp8 007F  
           MSSP_I2C_Master_Read_Blocking@i2c_obj 0002                    keypad_get_value@l_row_counter 000F  
                ultrasonic_initialize@ultra_pins 000D                                   ??_led_turn_off 000B  
                       __end_of_keypad_intialize 3022                MSSP_I2C_Master_call_slave@address 0006  
                                __initialization 2F60                                     RB4_ISR@value 0001  
                      _RB6_interrupthandler_high 00E0           MSSP_I2C_Master_Write_Blocking@i2c_data 0003  
                                   __end_of_main 1684                             timer1_osc_cfg@Timer1 0002  
                                  _lat_regisrers 008A                                     RB5_ISR@value 0001  
                                         ??_main 0100                                    __activetblptr 0003  
                               led_turn_on@F3065 005C                                        ??_RB4_ISR 0001  
                                      ??_RB5_ISR 0001                                        ??_RB6_ISR 0001  
                                      ??_RB7_ISR 0001                                     RB6_ISR@value 0001  
                                         _ADRESH 0FC4                                           _EEADRH 0FAA  
                                         _ADRESL 0FC3                                           _EEDATA 0FA8  
                                         _CCPR1L 0FBE                                           _CCPR2L 0FBB  
                                         _EECON2 0FA7                     ??_MSSP_I2C_Master_Send_Start 0003  
                                         i2l1100 33DA                                           i2l1111 33C0  
                                         i2l1200 1CB6                                           i2l1122 33A6  
                                         i2l1210 1DE6                                           i2l1202 1CFA  
                                         i2l1300 342E                                           i2l1220 1E86  
                                         i2l1212 1E06                                           i2l1204 1D3E  
                                         i2l1222 1EA6                                           i2l1214 1E26  
                                         i2l1206 1D82                                           i2l1231 1F26  
                                         i2l1224 1EC6                                           i2l1216 1E46  
                                         i2l1208 1DC6                                           i2l1073 3450  
                                         i2l1226 1EE6                                           i2l1218 1E66  
                                         i2l1068 3454                                           i2l1228 1F06  
                                         i2l1413 3436                                           i2l1078 344C  
                                         i2l1190 1B86                                           i2l1192 1BA6  
                                         i2l1089 33F4                                           i2l1601 3462  
                                         i2l1194 1BEA                                           i2l1196 1C2E  
                                         i2l1188 1B66                                           i2l1373 3422  
                                         i2l1198 1C72                                           i2l1477 3416  
                                         i2l1596 3440                                           i2l3567 345E  
                                         i2l6701 3456                                           i2l6713 3442  
                                         i2l6717 3446                                           i2l6813 33A6  
                                         i2l6805 3390                                           i2l6821 3426  
                                         i2l7701 1D4C                                           i2l6751 344E  
                                         i2l6807 3392                                           i2l6823 342A  
                                         i2l6831 341E                                           i2l7711 1D90  
                                         i2l7703 1D5A                                           i2l7631 1B62  
                                         i2l6745 3452                                           i2l6841 340E  
                                         i2l7721 1DD4                                           i2l7713 1D9E  
                                         i2l7705 1D68                                           i2l7641 1BB4  
                                         i2l7633 1B74                                           i2l6771 33F4  
                                         i2l6763 33DE                                           i2l6819 3424  
                                         i2l6827 3418                                           i2l6835 3430  
                                         i2l6843 3412                                           i2l7731 1E22  
                                         i2l7723 1DE2                                           i2l7715 1DAC  
                                         i2l7707 1D78                                           i2l7651 1BF8  
                                         i2l7643 1BC2                                           i2l7635 1B82  
                                         i2l7627 1B46                                           i2l6757 344A  
                                         i2l6765 33E0                                           i2l6829 341A  
                                         i2l6853 3462                                           i2l7741 1E74  
                                         i2l7733 1E34                                           i2l7725 1DF4  
                                         i2l7717 1DBC                                           i2l7709 1D7C  
                                         i2l7661 1C3C                                           i2l7653 1C06  
                                         i2l7645 1BD0                                           i2l7637 1B94  
                                         i2l7629 1B54                                           i2l6695 345A  
                                         i2l6791 33AA                                           i2l6839 340C  
                                         i2l6847 343E                                           i2l7751 1EC2  
                                         i2l7743 1E82                                           i2l7735 1E42  
                                         i2l7727 1E02                                           i2l7719 1DC0  
                                         i2l7671 1C80                                           i2l7663 1C4A  
                                         i2l7655 1C14                                           i2l7647 1BE0  
                                         i2l7639 1BA2                                           i2l6785 33DA  
                                         i2l6777 33C4                                           i2l6793 33AC  
                                         i2l7761 1F14                                           i2l7753 1ED4  
                                         i2l7745 1E94                                           i2l7737 1E54  
                                         i2l7729 1E14                                           i2l7681 1CC4  
                                         i2l7673 1C8E                                           i2l7665 1C58  
                                         i2l7657 1C24                                           i2l7649 1BE4  
                                         i2l6779 33C6                                           i2l7763 1F22  
                                         i2l7755 1EE2                                           i2l7747 1EA2  
                                         i2l7739 1E62                                           i2l7691 1D08  
                                         i2l7683 1CD2                                           i2l7675 1C9C  
                                         i2l7667 1C68                                           i2l7659 1C28  
                                         i2l7757 1EF4                                           i2l7749 1EB4  
                                         i2l7693 1D16                                           i2l7685 1CE0  
                                         i2l7677 1CAC                                           i2l7669 1C6C  
                                         i2l6799 33C0                                           i2l7759 1F02  
                                         i2l7695 1D24                                           i2l7687 1CF0  
                                         i2l7679 1CB0                                           i2l7697 1D34  
                                         i2l7689 1CF4                                           i2l7699 1D38  
                                         _SPBRGH 0FB0                                     RB7_ISR@value 0001  
                      _MSSP_I2C_Master_Send_Stop 321C                                           _SSPADD 0FC8  
                                         _SSPBUF 0FC9                        keypad_get_value@l_counter 000E  
               MSSP_I2C_Master_Read_Blocking@ack 0003                                 __end_of___xxtofl 2478  
                                _tc74_read_value 32BA                                  ??_led_intialize 000E  
                          __end_of_MSSP_I2C_Init 25A8     __end_of_I2C_Master_Mode_Clock_Configurations 2BA4  
         ??_I2C_Master_Mode_Clock_Configurations 0044            ?_I2C_Master_Mode_Clock_Configurations 0043  
           _I2C_Master_Mode_Clock_Configurations 2B0E                                    ??_Timer1_init 0004  
                        led_intialize@pin_config 000F                                        ??___fladd 0031  
                                      ??___fldiv 0018                                        ??___fltol 003D  
                 GPIO_pIN_WRITE_LOGIC@config_pin 0002                                        ??___lwdiv 0006  
                               led_intialize@led 000D                          __end_of_timer1_mode_cfg 2DB2  
                                         _buzzer 007B                                           clear_0 2FA6  
                                         clear_1 2FB2                                           _servo1 007A  
                                         isa$std 0001                                   _Timer0_preload 004B  
                        _TIMER0_Interrupthandler 00D8                                   _Timer1_preload 0049  
    _I2C_Report_Receive_Overflow_InterruptHandle 00F0                                   _Timer2_preload 0055  
                                      ?_CCP1_ISR 0001                                     __pdataCOMRAM 0063  
                                      ?_CCP2_ISR 0001                                   _Timer3_preload 0047  
                                   __mediumconst 0000                                           tblptrh 0FF7  
                                         tblptrl 0FF6                                           tblptru 0FF8  
                  distance_ultrasonic@ultra_pins 000D                            _ADC_handeler_funvtion 345E  
                keypad_get_value@l_colum_counter 0010                                     ___xxtofl@arg 000C  
                                   ___xxtofl@exp 000B                                     ___xxtofl@val 0002  
                                     __accesstop 0080                          __end_of__initialization 2FB8  
                                      ?_INT0_ISR 0001                                        ?_INT1_ISR 0001  
                                      ?_INT2_ISR 0001                           _intitialized_functions 30DE  
                                  ___rparam_used 0001                                       ___fltol@f1 0039  
               ??_MSSP_I2C_Master_Write_Blocking 0005                  ?_MSSP_I2C_Master_Write_Blocking 0002  
                                 __pcstackCOMRAM 0001                           _MSSP_I2C_Mode_GPIO_CFG 3438  
             MSSP_I2C_Master_Write_Blocking@_ack 0004                       _I2C_DefaultInterruptHandle 00F2  
                                   __pidataBANK0 3168                         _RB6_interrupthandler_low 00DE  
          MSSP_I2C_Master_Write_Blocking@i2c_obj 0002                           GPIO_pIN_READ_LOGIC@ret 0008  
                            __end_of_Timer1_init 2B0E                   _USART_OVERRUN_Interrupthandler 00CA  
                                     ??_CCP1_ISR 0001                                       ??_CCP2_ISR 0001  
                           __end_of_led_turn_off 2EFA                    keypad_get_value@matrix_keypad 000A  
           __end_of_GPIO_pIN_DIRECTION_INTIALIZE 26CE                     _GPIO_pIN_DIRECTION_INTIALIZE 25A8  
                        __end_of_tc74_read_value 32E4                     ??_MSSP_I2C_Master_call_slave 0009  
                      _USART_TX_Interrupthandler 00D0                                       __pbssBANK0 00C0  
                            tc74_read_value@_ack 000F                                       _data_key_1 005E  
                                     ??_INT0_ISR 0001                                       ??_INT1_ISR 0001  
                                     ??_INT2_ISR 0001                   MSSP_I2C_Master_call_slave@_ack 0008  
                   __end_of_GPIO_pIN_WRITE_LOGIC 27DE                   MSSP_I2C_Master_call_slave@data 0007  
                           relay_intialize@F3060 0059                                led_turn_off@F3070 005B  
                                   ??_TIMER0_ISR 0001                                     ??_TIMER1_ISR 0001  
                                   ??_TIMER2_ISR 0001                                     ??_TIMER3_ISR 0001  
                                led_toggle@F3075 005A                                 ?_timer1_mode_cfg 0002  
                                        _RB4_ISR 33DC                                          _RB5_ISR 33C2  
                                        _RB6_ISR 33A8                                          _RB7_ISR 338E  
                                      ?___xxtofl 0002                                    ?_MSSP_I2C_ISR 0001  
                         ?_ADC_handeler_funvtion 0001                                    _matrix_keypad 00B6  
                              ?_keypad_get_value 000A               __end_of_MSSP_I2C_Master_Send_Start 3288  
                     _MSSP_I2C_Master_Send_Start 3252                    ?_GPIO_pIN_DIRECTION_INTIALIZE 0002  
                             ??_keypad_get_value 000C                                   _tris_regisrers 009E  
                             __end_of_TIMER0_ISR 3430                               __end_of_TIMER1_ISR 3424  
                             __end_of_TIMER2_ISR 3438                               __end_of_TIMER3_ISR 3418  
                        _TIMER1_Interrupthandler 00D6     MSSP_I2C_Master_read_data_in_register@i2c_obj 0005  
                ??_I2C_Slave_Mode_Configurations 0003                                          _i2c_ack 0050  
                              ??_MSSP_I2C_BC_ISR 0001                                          __Hparam 0000  
                                        __Lparam 0000                                ?_keypad_intialize 000D  
                                    _Timer1_init 2A6E                                          ___fladd 1684  
                             ??_keypad_intialize 000E                                          ___fldiv 1F2A  
                                        ___fltol 27DE                                          ___lwdiv 2DB2  
                                   __psmallconst 1000                                          __pcinit 2F60  
                                        __ramtop 1000                                          __ptext0 1016  
                                        __ptext1 32BA                                          __ptext2 2CC0  
                                        __ptext3 330E                                          __ptext4 2C38  
                                        __ptext5 2E26                                          __ptext6 2E90  
                                        __ptext7 28E4                                          __ptext8 30DE  
                                        __ptext9 32E4                                        _T0CONbits 0FD5  
                          _ultrasonic_initialize 32E4                                        _T1CONbits 0FCD  
                                 ??_MSSP_I2C_ISR 0001                                        _T2CONbits 0FCA  
                   measure_distance_@pulse_width 000A                                       ??___xxtofl 0006  
                                      _T3CONbits 0FB1                                          _relay_1 0068  
                                        _relay_2 0067                            timer1_mode_cfg@Timer1 0002  
               MSSP_I2C_Master_Send_Stop@i2c_obj 0002                                 ?_tc74_read_value 000B  
                                 __pintcode_body 1B44                             end_of_initialization 2FB8  
                                     _ret_data_1 0061                                       _ret_data_2 0060  
                                     _ret_data_3 005F                                          int_func 1B44  
                            _distance_ultrasonic 33F6                                       _send_start 3336  
                              __end_of_value_ret 1011                        _RB4_interrupthandler_high 00E8  
                                      _RCSTAbits 0FAB                                          postdec1 0FE5  
                      _RB7_interrupthandler_high 00DC                                          postdec2 0FDD  
                        GPIO_pIN_WRITE_LOGIC@ret 0009                                          postinc0 0FEE  
                                        postinc1 0FE6                                          postinc2 0FDE  
    __end_of_MSSP_I2C_Master_Send_Repeated_Start 3336            ??_MSSP_I2C_Master_Send_Repeated_Start 0003  
           ?_MSSP_I2C_Master_Send_Repeated_Start 0002              _MSSP_I2C_Master_Send_Repeated_Start 330E  
                      tc74_read_value@i2c_data_1 000C                        tc74_read_value@i2c_data_2 000D  
                                _matrix_keypad_1 00A8                        GPIO_pIN_WRITE_LOGIC@logic 0003  
  __end_of_MSSP_I2C_Master_read_data_in_register 2D3C          ??_MSSP_I2C_Master_read_data_in_register 000A  
         ?_MSSP_I2C_Master_read_data_in_register 0005            _MSSP_I2C_Master_read_data_in_register 2CC0  
                                      _PORTBbits 0F81                             ?_distance_ultrasonic 000D  
                         tc74_read_value@i2c_obj 000B                       __end_of_timer1_reg_bit_cfg 31E2  
                                    ___fladd@grs 0038                             _GPIO_pIN_WRITE_LOGIC 26CE  
                                  ___xxtofl@sign 000A                                        _TRISCbits 0F94  
             __end_of_MSSP_I2C_Master_call_slave 32BA                       _MSSP_I2C_Master_call_slave 3288  
                                    ___fldiv@grs 0023                                      ___fldiv@rem 001C  
                        ?_intitialized_functions 0001                                    ?_USART_RX_ISR 0001  
                                  ?_USART_TX_ISR 0001                       __end_of_GPIO_pIN_INTIALIZE 3080  
                           send_start@ultra_pins 000A                                      _CCP1CONbits 0FBD  
                                    _CCP2CONbits 0FBA                                        _TXSTAbits 0FAC  
                        ?_MSSP_I2C_Mode_GPIO_CFG 0001                                       _ultra_data 0053  
                 ??_GPIO_pIN_DIRECTION_INTIALIZE 0003                                       _ultra_pins 00BE  
                                   _led_turn_off 2E90                            __end_of_led_intialize 2F60  
                             relay_turn_on@F3065 0058            __end_of_I2C_Slave_Mode_Configurations 338E  
                  _I2C_Slave_Mode_Configurations 3374                                relay_toggle@F3075 0056  
                          keypad_get_value@value 000B                    convert_uint16_to_string@F3210 00C0  
                                    _BAUDCONbits 0FB8                                    __pidataCOMRAM 3358  
                         ?_ultrasonic_initialize 000D                            ??_distance_ultrasonic 000E  
                                 _timer1_osc_cfg 31E2                          _TIMER2_Interrupthandler 00D4  
                                  _data_key_send 004F                            ?_GPIO_pIN_WRITE_LOGIC 0002  
                            start_initialization 2F60                                    ??_led_turn_on 000B  
                 __end_of_intitialized_functions 3124                                   ??_USART_RX_ISR 0001  
                                 ??_USART_TX_ISR 0001                   __end_of_MSSP_I2C_Mode_GPIO_CFG 343E  
                                    ?_send_start 000A                                  led_turn_off@led 000A  
          __end_of_MSSP_I2C_Master_Read_Blocking 2CC0                    _MSSP_I2C_Master_Read_Blocking 2C38  
                           __end_of_MSSP_I2C_ISR 3446                         _RB5_interrupthandler_low 00E2  
      MSSP_I2C_Master_read_data_in_register@_ack 0009                           __end_of_timer1_osc_cfg 321C  
                                    __pdataBANK0 0080           GPIO_pIN_DIRECTION_INTIALIZE@config_pin 0002  
                        ??_ADC_handeler_funvtion 0001                                        ___fladd@a 002D  
                                      ___fladd@b 0029                             MSSP_I2C_Init@i2c_obj 0045  
                            _GPIO_pIN_READ_LOGIC 29CA                                        ___fldiv@a 0014  
                                      ___fldiv@b 0010                                         ?_RB4_ISR 0001  
                                       ?_RB5_ISR 0001                                         ?_RB6_ISR 0001  
                                       ?_RB7_ISR 0001                                      __pbssCOMRAM 0047  
    _I2C_Report_Write_Collision_InterruptHandler 00F4                                    __pcstackBANK1 0100  
                                _MSSP_I2C_BC_ISR 3446                      ?_MSSP_I2C_Master_Send_Start 0002  
                      _USART_RX_Interrupthandler 00CE                                      _data_return 0054  
                            __end_of_led_turn_on 2E90                             ?_GPIO_pIN_READ_LOGIC 0002  
                                      __pnvBANK0 00FF                                _measure_distance_ 2BA4  
                               ___lwdiv@dividend 0002                                    _MSSP_I2C_Init 2478  
                             ?_measure_distance_ 0009                                     ?_Timer1_init 0003  
                                      __pintcode 0008  MSSP_I2C_Master_read_data_in_register@i2c_data_1 0006  
MSSP_I2C_Master_read_data_in_register@i2c_data_2 0007                                         ?___fladd 0029  
                                       ?___fldiv 0010                                         ?___fltol 0039  
                      measure_distance_@variable 000C                                         ?___lwdiv 0002  
                                ?_timer1_osc_cfg 0002                   ?_I2C_Slave_Mode_Configurations 0002  
                            ??_measure_distance_ 000A                           ??_GPIO_pIN_WRITE_LOGIC 0004  
                                    __smallconst 1000                                         _CCP1_ISR 345A  
                                       _CCP2_ISR 3456                                _interrupt_manager 0008  
                              Timer1_init@Timer1 0003                            _Int0_interrupthandler 00EE  
                             ?_interrupt_manager 0001                                 ___lwdiv@quotient 0006  
                         led_turn_off@pin_config 000C                        __end_of_measure_distance_ 2C38  
                            ??_interrupt_manager 0002                          _TIMER3_Interrupthandler 00D2  
                                       _INT0_ISR 3452                                         _INT1_ISR 344E  
                                       _INT2_ISR 344A                            ??_GPIO_pIN_READ_LOGIC 0004  
                                       _IPR2bits 0FA2                                         _PIE1bits 0F9D  
                                       _PIE2bits 0FA0                                   ?_MSSP_I2C_Init 0045  
       MSSP_I2C_Interrupt_Configurations@i2c_obj 0002                                         _PIR1bits 0F9E  
                                       i2u602_40 33F0                                         i2u602_41 33EC  
                                       i2u603_40 33D6                                         i2u603_41 33D2  
                                       _PIR2bits 0FA1                                         i2u604_40 33BC  
                                       i2u700_40 1CE0                                         i2u604_41 33B8  
                                       i2u700_41 1CDC                                         i2u605_40 33A2  
                                       i2u701_40 1CF0                                         i2u605_41 339E  
                                       i2u701_41 1CEC                                         i2u710_40 1D90  
                                       i2u702_40 1D08                                         i2u710_41 1D8C  
                                       i2u702_41 1D04                                         i2u711_40 1D9E  
                                       i2u703_40 1D16                                         i2u711_41 1D9A  
                                       i2u703_41 1D12                                         i2u720_40 1E34  
                                       i2u712_40 1DAC                                         i2u704_40 1D24  
                                       i2u720_41 1E30                                         i2u712_41 1DA8  
                                       i2u704_41 1D20                                         i2u721_40 1E42  
                                       i2u713_40 1DBC                                         i2u705_40 1D34  
                                       i2u721_41 1E3E                                         i2u713_41 1DB8  
                                       i2u705_41 1D30                                         i2u730_40 1ED4  
                                       i2u722_40 1E54                                         i2u714_40 1DD4  
                                       i2u706_40 1D4C                                         i2u730_41 1ED0  
                                       i2u722_41 1E50                                         i2u714_41 1DD0  
                                       i2u706_41 1D48                                         i2u731_40 1EE2  
                                       i2u723_40 1E62                                         i2u715_40 1DE2  
                                       i2u707_40 1D5A                                         i2u731_41 1EDE  
                                       i2u723_41 1E5E                                         i2u715_41 1DDE  
                                       i2u707_41 1D56                                         i2u732_40 1EF4  
                                       i2u724_40 1E74                                         i2u716_40 1DF4  
                                       i2u708_40 1D68                                         i2u732_41 1EF0  
                                       i2u724_41 1E70                                         i2u716_41 1DF0  
                                       i2u708_41 1D64                                         i2u733_40 1F02  
                                       i2u725_40 1E82                                         i2u717_40 1E02  
                                       i2u709_40 1D78                                         i2u733_41 1EFE  
                                       i2u725_41 1E7E                                         i2u717_41 1DFE  
                                       i2u709_41 1D74                                         i2u734_40 1F14  
                                       i2u726_40 1E94                                         i2u718_40 1E14  
                                       i2u734_41 1F10                                         i2u726_41 1E90  
                                       i2u718_41 1E10                                         i2u735_40 1F22  
                                       i2u727_40 1EA2                                         i2u719_40 1E22  
                                       i2u735_41 1F1E                                         i2u727_41 1E9E  
                                       i2u719_41 1E1E                                         i2u728_40 1EB4  
                                       i2u680_40 1B94                                         i2u728_41 1EB0  
                                       i2u680_41 1B90                                         i2u729_40 1EC2  
                                       i2u681_40 1BA2                                         i2u729_41 1EBE  
                                       i2u681_41 1B9E                                         i2u690_40 1C3C  
                                       i2u682_40 1BB4                                         i2u690_41 1C38  
                                       i2u682_41 1BB0                                         i2u691_40 1C4A  
                                       i2u683_40 1BC2                                         i2u691_41 1C46  
                                       i2u683_41 1BBE                                         i2u692_40 1C58  
                                       i2u684_40 1BD0                                         i2u676_40 1B54  
                                       i2u692_41 1C54                                         i2u684_41 1BCC  
                                       i2u676_41 1B50                                         i2u693_40 1C68  
                                       i2u685_40 1BE0                                         i2u677_40 1B62  
                                       i2u693_41 1C64                                         i2u685_41 1BDC  
                                       i2u677_41 1B5E                                         i2u694_40 1C80  
                                       i2u686_40 1BF8                                         i2u678_40 1B74  
                                       i2u694_41 1C7C                                         i2u686_41 1BF4  
                                       i2u678_41 1B70                                         i2u695_40 1C8E  
                                       i2u687_40 1C06                                         i2u679_40 1B82  
                                       i2u695_41 1C8A                                         i2u687_41 1C02  
                                       i2u679_41 1B7E                                         i2u696_40 1C9C  
                                       i2u688_40 1C14                                         i2u696_41 1C98  
                                       i2u688_41 1C10                                         i2u697_40 1CAC  
                                       i2u689_40 1C24                                         i2u697_41 1CA8  
                                       i2u689_41 1C20                                         i2u698_40 1CC4  
                                       i2u698_41 1CC0                                         i2u699_40 1CD2  
                                       i2u699_41 1CCE                                        _value_ret 1001  
                 ?_MSSP_I2C_Master_Read_Blocking 0002                 _USART_FRAMERROR_Interrupthandler 00CC  
                           __end_of_USART_RX_ISR 3464             I2C_Slave_Mode_Configurations@i2c_obj 0002  
                           __end_of_USART_TX_ISR 3442                        __end_of_interrupt_manager 1F2A  
                                     _ADCON0bits 0FC2                                       _ADCON1bits 0FC1  
                                     _ADCON2bits 0FC0                  GPIO_pIN_DIRECTION_INTIALIZE@ret 0008  
                        __end_of_MSSP_I2C_BC_ISR 344A                    keypad_intialize@l_row_counter 000E  
                                    _led_turn_on 2E26                      ?_MSSP_I2C_Master_call_slave 0005  
                                    _INTCON2bits 0FF1                                      _INTCON3bits 0FF0  
                                      copy_data0 2F74                                        copy_data1 2F94  
                             _timer1_reg_bit_cfg 31A8                                         _i2c_data 0051  
                                _ultra_data_int_ 0052                                       _EECON1bits 0FA6  
                               MSSP_I2C_Init@ret 0046                                   led_turn_on@led 000A  
                                       __Hrparam 0000                              ?_timer1_reg_bit_cfg 0002  
                                       _Timer1_1 00FA                                         _Timer2_1 00C6  
                                       __Lrparam 0000                  keypad_intialize@l_colum_counter 000F  
                      _RB5_interrupthandler_high 00E4                          ??_ultrasonic_initialize 000E  
                             _GPIO_pIN_INTIALIZE 3022                       ?_MSSP_I2C_Master_Send_Stop 0002  
              MSSP_I2C_Master_Send_Start@i2c_obj 0002                              ?_GPIO_pIN_INTIALIZE 000A  
                             led_intialize@F3060 005D                             ??_timer1_reg_bit_cfg 0003  
                                       ___xxtofl 22C4                                     _MSSP_I2C_ISR 3442  
          MSSP_I2C_Master_Read_Blocking@i2c_data 0004                                  ___lwdiv@divisor 0004  
                                ___lwdiv@counter 0008                                         __ptext10 2EFA  
                                       __ptext11 2FC2                                         __ptext20 3124  
                                       __ptext12 3022                                         __ptext21 3374  
                                       __ptext13 25A8                                         __ptext30 2BA4  
                                       __ptext22 2B0E                                         __ptext14 2A6E  
                                       __ptext31 2DB2                                         __ptext23 22C4  
                                       __ptext15 31A8                                         __ptext40 340C  
                                       __ptext32 29CA                                         __ptext24 27DE  
                                       __ptext16 31E2                                         __ptext41 3430  
                                       __ptext33 3288                                         __ptext25 1F2A  
                                       __ptext17 2D3C                                         __ptext50 344A  
                                       __ptext42 3418                                         __ptext34 3080  
                                       __ptext26 1684                                         __ptext18 2478  
                                       __ptext51 344E                                         __ptext43 3424  
                                       __ptext35 321C                                         __ptext27 33F6  
                                       __ptext19 3438                                         __ptext52 3452  
                                       __ptext44 338E                                         __ptext36 3252  
                                       __ptext28 3336                                         __ptext53 3456  
                                       __ptext45 33A8                                         __ptext29 26CE  
                                       __ptext54 345A                                         __ptext46 33C2  
                                       __ptext38 343E                                         __ptext55 345E  
                                       __ptext47 33DC                                         __ptext39 3462  
                                       __ptext48 3442                                         __ptext49 3446  
    I2C_Master_Mode_Clock_Configurations@i2c_obj 0043                            _CCP1_Interrupthandler 00F8  
                              ??_timer1_mode_cfg 0003    MSSP_I2C_Master_read_data_in_register@ret_data 0008  
                                       _button_1 00B3                                         _button_2 00B0  
                                ??_MSSP_I2C_Init 0046                                     ??_send_start 000B  
                           ??_GPIO_pIN_INTIALIZE 000B                            led_turn_on@pin_config 000C  
                          _Int1_interrupthandler 00EC                                 _keypad_get_value 28E4  
                    __end_of_distance_ultrasonic 340C                                         _mssp_i2c 006B  
                                       isa$xinst 0000                                         int$flags 007E  
                               ?_MSSP_I2C_BC_ISR 0001                __end_of_MSSP_I2C_Master_Send_Stop 3252  
                                     _INTCONbits 0FF2                                 _keypad_intialize 2FC2  
                  __end_of_ADC_handeler_funvtion 3462                               __end_of_send_start 3358  
                                       intlevel2 0000                                 ??_timer1_osc_cfg 0003  
                    measure_distance_@ultra_pins 0009                     GPIO_pIN_INTIALIZE@config_pin 000A  
                       _RB4_interrupthandler_low 00E6                         _RB7_interrupthandler_low 00DA  
                  keypad_intialize@matrix_keypad 000D                                       _TIMER0_ISR 3424  
                                     _TIMER1_ISR 3418                                       _TIMER2_ISR 3430  
                                     _TIMER3_ISR 340C                                ??_tc74_read_value 0010  
                    keypad_get_value@colum_logic 000D        __end_of_MSSP_I2C_Interrupt_Configurations 3168  
            ??_MSSP_I2C_Interrupt_Configurations 0003               ?_MSSP_I2C_Interrupt_Configurations 0002  
              _MSSP_I2C_Interrupt_Configurations 3124                    GPIO_pIN_READ_LOGIC@config_pin 0002  
                                 _port_regisrers 0094                         timer1_reg_bit_cfg@Timer1 0002  
         __end_of_MSSP_I2C_Master_Write_Blocking 30DE                   _MSSP_I2C_Master_Write_Blocking 3080  
                                    _SSPCON1bits 0FC6                                      _SSPCON2bits 0FC5  
                                  ___fladd@signs 0035                                     _USART_RX_ISR 3462  
                                   _USART_TX_ISR 343E                                     ___fladd@aexp 0036  
                                   ___fladd@bexp 0037  
